

Microchip MPLAB XC8 Assembler V2.45 build 20230818022343 
                                                                                               Wed May 21 15:57:30 2025

Microchip MPLAB XC8 C Compiler v2.45 (Free license) build 20230818022343 Og1 
     1                           	processor	16F1936
     2                           	pagewidth 120
     3                           	opt	flic
     4                           	psect	idataBANK0,global,class=CODE,delta=2,noexec
     5                           	psect	stringtext1,global,class=STRCODE,delta=2,noexec
     6                           	psect	cinit,global,class=CODE,merge=1,delta=2
     7                           	psect	bssCOMMON,global,class=COMMON,space=1,delta=1,noexec
     8                           	psect	bssBANK0,global,class=BANK0,space=1,delta=1,noexec
     9                           	psect	dataBANK0,global,class=BANK0,space=1,delta=1,noexec
    10                           	psect	bssBANK1,global,class=BANK1,space=1,delta=1,noexec
    11                           	psect	clrtext,global,class=CODE,delta=2
    12                           	psect	cstackBANK1,global,class=BANK1,space=1,delta=1,noexec
    13                           	psect	cstackCOMMON,global,class=COMMON,space=1,delta=1,noexec
    14                           	psect	cstackBANK0,global,class=BANK0,space=1,delta=1,noexec
    15                           	psect	maintext,global,class=CODE,merge=1,split=1,delta=2
    16                           	psect	text1,local,class=CODE,merge=1,delta=2
    17                           	psect	text2,local,class=CODE,merge=1,delta=2
    18                           	psect	text3,local,class=CODE,merge=1,delta=2
    19                           	psect	text4,local,class=CODE,merge=1,delta=2
    20                           	psect	text5,local,class=CODE,merge=1,delta=2
    21                           	psect	text6,local,class=CODE,merge=1,delta=2
    22                           	psect	text7,local,class=CODE,merge=1,delta=2
    23                           	psect	text8,local,class=CODE,merge=1,delta=2
    24                           	psect	text9,local,class=CODE,merge=1,delta=2
    25                           	psect	text10,local,class=CODE,merge=1,delta=2
    26                           	psect	text11,local,class=CODE,merge=1,delta=2
    27                           	psect	text12,local,class=CODE,merge=1,delta=2
    28                           	psect	text13,local,class=CODE,merge=1,delta=2
    29                           	psect	text14,local,class=CODE,merge=1,delta=2
    30                           	psect	text15,local,class=CODE,merge=1,delta=2
    31                           	psect	text16,local,class=CODE,merge=1,delta=2
    32                           	psect	text17,local,class=CODE,merge=1,delta=2
    33                           	psect	text18,local,class=CODE,merge=1,delta=2
    34                           	psect	text19,local,class=CODE,merge=1,delta=2,group=2
    35                           	psect	text20,local,class=CODE,merge=1,delta=2
    36                           	psect	text21,local,class=CODE,merge=1,delta=2
    37                           	psect	text22,local,class=CODE,merge=1,delta=2
    38                           	psect	text23,local,class=CODE,merge=1,delta=2
    39                           	psect	text24,local,class=CODE,merge=1,delta=2,group=2
    40                           	psect	text25,local,class=CODE,merge=1,delta=2
    41                           	psect	text26,local,class=CODE,merge=1,delta=2
    42                           	psect	text27,local,class=CODE,merge=1,delta=2
    43                           	psect	text28,local,class=CODE,merge=1,delta=2
    44                           	psect	text29,local,class=CODE,merge=1,delta=2
    45                           	psect	text30,local,class=CODE,merge=1,delta=2
    46                           	psect	text31,local,class=CODE,merge=1,delta=2
    47                           	psect	text32,local,class=CODE,merge=1,delta=2
    48                           	psect	text33,local,class=CODE,merge=1,delta=2
    49                           	psect	text34,local,class=CODE,merge=1,delta=2
    50                           	psect	text35,local,class=CODE,merge=1,delta=2
    51                           	psect	text36,local,class=CODE,merge=1,delta=2
    52                           	psect	intentry,global,class=CODE,delta=2
    53                           	psect	text38,local,class=CODE,merge=1,delta=2
    54                           	psect	text39,local,class=CODE,merge=1,delta=2
    55                           	psect	text40,local,class=CODE,merge=1,delta=2
    56                           	psect	text41,local,class=CODE,merge=1,delta=2
    57                           	psect	text42,local,class=CODE,merge=1,delta=2
    58                           	psect	text43,local,class=CODE,merge=1,delta=2
    59                           	psect	text44,local,class=CODE,merge=1,delta=2
    60                           	psect	text45,local,class=CODE,merge=1,delta=2
    61                           	psect	text46,local,class=CODE,merge=1,delta=2
    62                           	psect	text47,local,class=CODE,merge=1,delta=2
    63                           	psect	config,global,abs,ovrld,class=CONFIG,space=4,delta=2,noexec
    64                           	dabs	1,0x7E,2
    65     0000                     
    66                           ; Version 2.20
    67                           ; Generated 12/02/2020 GMT
    68                           ; 
    69                           ; Copyright © 2020, Microchip Technology Inc. and its subsidiaries ("Microchip")
    70                           ; All rights reserved.
    71                           ; 
    72                           ; This software is developed by Microchip Technology Inc. and its subsidiaries ("Microch
      +                          ip").
    73                           ; 
    74                           ; Redistribution and use in source and binary forms, with or without modification, are
    75                           ; permitted provided that the following conditions are met:
    76                           ; 
    77                           ;     1. Redistributions of source code must retain the above copyright notice, this lis
      +                          t of
    78                           ;        conditions and the following disclaimer.
    79                           ; 
    80                           ;     2. Redistributions in binary form must reproduce the above copyright notice, this 
      +                          list
    81                           ;        of conditions and the following disclaimer in the documentation and/or other
    82                           ;        materials provided with the distribution.
    83                           ; 
    84                           ;     3. Microchip's name may not be used to endorse or promote products derived from th
      +                          is
    85                           ;        software without specific prior written permission.
    86                           ; 
    87                           ; THIS SOFTWARE IS PROVIDED BY MICROCHIP "AS IS" AND ANY EXPRESS OR IMPLIED WARRANTIES,
    88                           ; INCLUDING, BUT NOT LIMITED TO, THE IMPLIED WARRANTIES OF MERCHANTABILITY AND FITNESS F
      +                          OR
    89                           ; PURPOSE ARE DISCLAIMED.  IN NO EVENT SHALL MICROCHIP BE LIABLE FOR ANY DIRECT, INDIREC
      +                          T,
    90                           ; INCIDENTAL, SPECIAL, EXEMPLARY, OR CONSEQUENTIAL DAMAGES (INCLUDING BUT NOT LIMITED TO
    91                           ; PROCUREMENT OF SUBSTITUTE GOODS OR SERVICES; LOSS OF USE, DATA OR PROFITS; OR BUSINESS
    92                           ; INTERRUPTION) HOWSOEVER CAUSED AND ON ANY THEORY OF LIABILITY, WHETHER IN CONTRACT, ST
      +                          RICT
    93                           ; LIABILITY, OR TORT (INCLUDING NEGLIGENCE OR OTHERWISE) ARISING IN ANY WAY OUT OF THE U
      +                          SE OF
    94                           ; THIS SOFTWARE, EVEN IF ADVISED OF THE POSSIBILITY OF SUCH DAMAGE.
    95                           ; 
    96                           ; 
    97                           ; Code-generator required, PIC16F1936 Definitions
    98                           ; 
    99                           ; SFR Addresses
   100     0000                     	;# 
   101     0001                     	;# 
   102     0002                     	;# 
   103     0003                     	;# 
   104     0004                     	;# 
   105     0005                     	;# 
   106     0006                     	;# 
   107     0007                     	;# 
   108     0008                     	;# 
   109     0009                     	;# 
   110     000A                     	;# 
   111     000B                     	;# 
   112     000C                     	;# 
   113     000D                     	;# 
   114     000E                     	;# 
   115     0010                     	;# 
   116     0011                     	;# 
   117     0012                     	;# 
   118     0013                     	;# 
   119     0015                     	;# 
   120     0016                     	;# 
   121     0016                     	;# 
   122     0017                     	;# 
   123     0018                     	;# 
   124     0019                     	;# 
   125     001A                     	;# 
   126     001B                     	;# 
   127     001C                     	;# 
   128     001E                     	;# 
   129     001F                     	;# 
   130     008C                     	;# 
   131     008D                     	;# 
   132     008E                     	;# 
   133     0090                     	;# 
   134     0091                     	;# 
   135     0092                     	;# 
   136     0093                     	;# 
   137     0095                     	;# 
   138     0096                     	;# 
   139     0097                     	;# 
   140     0098                     	;# 
   141     0099                     	;# 
   142     009A                     	;# 
   143     009B                     	;# 
   144     009B                     	;# 
   145     009C                     	;# 
   146     009D                     	;# 
   147     009E                     	;# 
   148     010C                     	;# 
   149     010D                     	;# 
   150     010E                     	;# 
   151     0110                     	;# 
   152     0111                     	;# 
   153     0112                     	;# 
   154     0113                     	;# 
   155     0114                     	;# 
   156     0115                     	;# 
   157     0116                     	;# 
   158     0117                     	;# 
   159     0118                     	;# 
   160     0119                     	;# 
   161     011A                     	;# 
   162     011B                     	;# 
   163     011D                     	;# 
   164     018C                     	;# 
   165     018D                     	;# 
   166     0191                     	;# 
   167     0191                     	;# 
   168     0192                     	;# 
   169     0193                     	;# 
   170     0193                     	;# 
   171     0193                     	;# 
   172     0194                     	;# 
   173     0195                     	;# 
   174     0196                     	;# 
   175     0199                     	;# 
   176     019A                     	;# 
   177     019B                     	;# 
   178     019B                     	;# 
   179     019B                     	;# 
   180     019B                     	;# 
   181     019C                     	;# 
   182     019C                     	;# 
   183     019D                     	;# 
   184     019E                     	;# 
   185     019F                     	;# 
   186     020D                     	;# 
   187     0210                     	;# 
   188     0211                     	;# 
   189     0212                     	;# 
   190     0213                     	;# 
   191     0214                     	;# 
   192     0215                     	;# 
   193     0215                     	;# 
   194     0216                     	;# 
   195     0217                     	;# 
   196     0291                     	;# 
   197     0291                     	;# 
   198     0292                     	;# 
   199     0293                     	;# 
   200     0294                     	;# 
   201     0295                     	;# 
   202     0295                     	;# 
   203     0296                     	;# 
   204     0298                     	;# 
   205     0298                     	;# 
   206     0299                     	;# 
   207     029A                     	;# 
   208     029B                     	;# 
   209     029C                     	;# 
   210     029C                     	;# 
   211     029D                     	;# 
   212     029E                     	;# 
   213     029F                     	;# 
   214     0311                     	;# 
   215     0311                     	;# 
   216     0312                     	;# 
   217     0313                     	;# 
   218     0314                     	;# 
   219     0315                     	;# 
   220     0315                     	;# 
   221     0316                     	;# 
   222     0318                     	;# 
   223     0318                     	;# 
   224     0319                     	;# 
   225     031A                     	;# 
   226     031C                     	;# 
   227     031C                     	;# 
   228     031D                     	;# 
   229     031E                     	;# 
   230     0394                     	;# 
   231     0395                     	;# 
   232     0396                     	;# 
   233     0415                     	;# 
   234     0416                     	;# 
   235     0417                     	;# 
   236     041C                     	;# 
   237     041D                     	;# 
   238     041E                     	;# 
   239     0791                     	;# 
   240     0792                     	;# 
   241     0793                     	;# 
   242     0794                     	;# 
   243     0795                     	;# 
   244     0798                     	;# 
   245     0799                     	;# 
   246     07A0                     	;# 
   247     07A1                     	;# 
   248     07A3                     	;# 
   249     07A4                     	;# 
   250     07A6                     	;# 
   251     07A7                     	;# 
   252     07A9                     	;# 
   253     07AA                     	;# 
   254     0FE4                     	;# 
   255     0FE5                     	;# 
   256     0FE6                     	;# 
   257     0FE7                     	;# 
   258     0FE8                     	;# 
   259     0FE9                     	;# 
   260     0FEA                     	;# 
   261     0FEB                     	;# 
   262     0FED                     	;# 
   263     0FEE                     	;# 
   264     0FEF                     	;# 
   265     0000                     	;# 
   266     0001                     	;# 
   267     0002                     	;# 
   268     0003                     	;# 
   269     0004                     	;# 
   270     0005                     	;# 
   271     0006                     	;# 
   272     0007                     	;# 
   273     0008                     	;# 
   274     0009                     	;# 
   275     000A                     	;# 
   276     000B                     	;# 
   277     000C                     	;# 
   278     000D                     	;# 
   279     000E                     	;# 
   280     0010                     	;# 
   281     0011                     	;# 
   282     0012                     	;# 
   283     0013                     	;# 
   284     0015                     	;# 
   285     0016                     	;# 
   286     0016                     	;# 
   287     0017                     	;# 
   288     0018                     	;# 
   289     0019                     	;# 
   290     001A                     	;# 
   291     001B                     	;# 
   292     001C                     	;# 
   293     001E                     	;# 
   294     001F                     	;# 
   295     008C                     	;# 
   296     008D                     	;# 
   297     008E                     	;# 
   298     0090                     	;# 
   299     0091                     	;# 
   300     0092                     	;# 
   301     0093                     	;# 
   302     0095                     	;# 
   303     0096                     	;# 
   304     0097                     	;# 
   305     0098                     	;# 
   306     0099                     	;# 
   307     009A                     	;# 
   308     009B                     	;# 
   309     009B                     	;# 
   310     009C                     	;# 
   311     009D                     	;# 
   312     009E                     	;# 
   313     010C                     	;# 
   314     010D                     	;# 
   315     010E                     	;# 
   316     0110                     	;# 
   317     0111                     	;# 
   318     0112                     	;# 
   319     0113                     	;# 
   320     0114                     	;# 
   321     0115                     	;# 
   322     0116                     	;# 
   323     0117                     	;# 
   324     0118                     	;# 
   325     0119                     	;# 
   326     011A                     	;# 
   327     011B                     	;# 
   328     011D                     	;# 
   329     018C                     	;# 
   330     018D                     	;# 
   331     0191                     	;# 
   332     0191                     	;# 
   333     0192                     	;# 
   334     0193                     	;# 
   335     0193                     	;# 
   336     0193                     	;# 
   337     0194                     	;# 
   338     0195                     	;# 
   339     0196                     	;# 
   340     0199                     	;# 
   341     019A                     	;# 
   342     019B                     	;# 
   343     019B                     	;# 
   344     019B                     	;# 
   345     019B                     	;# 
   346     019C                     	;# 
   347     019C                     	;# 
   348     019D                     	;# 
   349     019E                     	;# 
   350     019F                     	;# 
   351     020D                     	;# 
   352     0210                     	;# 
   353     0211                     	;# 
   354     0212                     	;# 
   355     0213                     	;# 
   356     0214                     	;# 
   357     0215                     	;# 
   358     0215                     	;# 
   359     0216                     	;# 
   360     0217                     	;# 
   361     0291                     	;# 
   362     0291                     	;# 
   363     0292                     	;# 
   364     0293                     	;# 
   365     0294                     	;# 
   366     0295                     	;# 
   367     0295                     	;# 
   368     0296                     	;# 
   369     0298                     	;# 
   370     0298                     	;# 
   371     0299                     	;# 
   372     029A                     	;# 
   373     029B                     	;# 
   374     029C                     	;# 
   375     029C                     	;# 
   376     029D                     	;# 
   377     029E                     	;# 
   378     029F                     	;# 
   379     0311                     	;# 
   380     0311                     	;# 
   381     0312                     	;# 
   382     0313                     	;# 
   383     0314                     	;# 
   384     0315                     	;# 
   385     0315                     	;# 
   386     0316                     	;# 
   387     0318                     	;# 
   388     0318                     	;# 
   389     0319                     	;# 
   390     031A                     	;# 
   391     031C                     	;# 
   392     031C                     	;# 
   393     031D                     	;# 
   394     031E                     	;# 
   395     0394                     	;# 
   396     0395                     	;# 
   397     0396                     	;# 
   398     0415                     	;# 
   399     0416                     	;# 
   400     0417                     	;# 
   401     041C                     	;# 
   402     041D                     	;# 
   403     041E                     	;# 
   404     0791                     	;# 
   405     0792                     	;# 
   406     0793                     	;# 
   407     0794                     	;# 
   408     0795                     	;# 
   409     0798                     	;# 
   410     0799                     	;# 
   411     07A0                     	;# 
   412     07A1                     	;# 
   413     07A3                     	;# 
   414     07A4                     	;# 
   415     07A6                     	;# 
   416     07A7                     	;# 
   417     07A9                     	;# 
   418     07AA                     	;# 
   419     0FE4                     	;# 
   420     0FE5                     	;# 
   421     0FE6                     	;# 
   422     0FE7                     	;# 
   423     0FE8                     	;# 
   424     0FE9                     	;# 
   425     0FEA                     	;# 
   426     0FEB                     	;# 
   427     0FED                     	;# 
   428     0FEE                     	;# 
   429     0FEF                     	;# 
   430     0000                     	;# 
   431     0001                     	;# 
   432     0002                     	;# 
   433     0003                     	;# 
   434     0004                     	;# 
   435     0005                     	;# 
   436     0006                     	;# 
   437     0007                     	;# 
   438     0008                     	;# 
   439     0009                     	;# 
   440     000A                     	;# 
   441     000B                     	;# 
   442     000C                     	;# 
   443     000D                     	;# 
   444     000E                     	;# 
   445     0010                     	;# 
   446     0011                     	;# 
   447     0012                     	;# 
   448     0013                     	;# 
   449     0015                     	;# 
   450     0016                     	;# 
   451     0016                     	;# 
   452     0017                     	;# 
   453     0018                     	;# 
   454     0019                     	;# 
   455     001A                     	;# 
   456     001B                     	;# 
   457     001C                     	;# 
   458     001E                     	;# 
   459     001F                     	;# 
   460     008C                     	;# 
   461     008D                     	;# 
   462     008E                     	;# 
   463     0090                     	;# 
   464     0091                     	;# 
   465     0092                     	;# 
   466     0093                     	;# 
   467     0095                     	;# 
   468     0096                     	;# 
   469     0097                     	;# 
   470     0098                     	;# 
   471     0099                     	;# 
   472     009A                     	;# 
   473     009B                     	;# 
   474     009B                     	;# 
   475     009C                     	;# 
   476     009D                     	;# 
   477     009E                     	;# 
   478     010C                     	;# 
   479     010D                     	;# 
   480     010E                     	;# 
   481     0110                     	;# 
   482     0111                     	;# 
   483     0112                     	;# 
   484     0113                     	;# 
   485     0114                     	;# 
   486     0115                     	;# 
   487     0116                     	;# 
   488     0117                     	;# 
   489     0118                     	;# 
   490     0119                     	;# 
   491     011A                     	;# 
   492     011B                     	;# 
   493     011D                     	;# 
   494     018C                     	;# 
   495     018D                     	;# 
   496     0191                     	;# 
   497     0191                     	;# 
   498     0192                     	;# 
   499     0193                     	;# 
   500     0193                     	;# 
   501     0193                     	;# 
   502     0194                     	;# 
   503     0195                     	;# 
   504     0196                     	;# 
   505     0199                     	;# 
   506     019A                     	;# 
   507     019B                     	;# 
   508     019B                     	;# 
   509     019B                     	;# 
   510     019B                     	;# 
   511     019C                     	;# 
   512     019C                     	;# 
   513     019D                     	;# 
   514     019E                     	;# 
   515     019F                     	;# 
   516     020D                     	;# 
   517     0210                     	;# 
   518     0211                     	;# 
   519     0212                     	;# 
   520     0213                     	;# 
   521     0214                     	;# 
   522     0215                     	;# 
   523     0215                     	;# 
   524     0216                     	;# 
   525     0217                     	;# 
   526     0291                     	;# 
   527     0291                     	;# 
   528     0292                     	;# 
   529     0293                     	;# 
   530     0294                     	;# 
   531     0295                     	;# 
   532     0295                     	;# 
   533     0296                     	;# 
   534     0298                     	;# 
   535     0298                     	;# 
   536     0299                     	;# 
   537     029A                     	;# 
   538     029B                     	;# 
   539     029C                     	;# 
   540     029C                     	;# 
   541     029D                     	;# 
   542     029E                     	;# 
   543     029F                     	;# 
   544     0311                     	;# 
   545     0311                     	;# 
   546     0312                     	;# 
   547     0313                     	;# 
   548     0314                     	;# 
   549     0315                     	;# 
   550     0315                     	;# 
   551     0316                     	;# 
   552     0318                     	;# 
   553     0318                     	;# 
   554     0319                     	;# 
   555     031A                     	;# 
   556     031C                     	;# 
   557     031C                     	;# 
   558     031D                     	;# 
   559     031E                     	;# 
   560     0394                     	;# 
   561     0395                     	;# 
   562     0396                     	;# 
   563     0415                     	;# 
   564     0416                     	;# 
   565     0417                     	;# 
   566     041C                     	;# 
   567     041D                     	;# 
   568     041E                     	;# 
   569     0791                     	;# 
   570     0792                     	;# 
   571     0793                     	;# 
   572     0794                     	;# 
   573     0795                     	;# 
   574     0798                     	;# 
   575     0799                     	;# 
   576     07A0                     	;# 
   577     07A1                     	;# 
   578     07A3                     	;# 
   579     07A4                     	;# 
   580     07A6                     	;# 
   581     07A7                     	;# 
   582     07A9                     	;# 
   583     07AA                     	;# 
   584     0FE4                     	;# 
   585     0FE5                     	;# 
   586     0FE6                     	;# 
   587     0FE7                     	;# 
   588     0FE8                     	;# 
   589     0FE9                     	;# 
   590     0FEA                     	;# 
   591     0FEB                     	;# 
   592     0FED                     	;# 
   593     0FEE                     	;# 
   594     0FEF                     	;# 
   595     0000                     	;# 
   596     0001                     	;# 
   597     0002                     	;# 
   598     0003                     	;# 
   599     0004                     	;# 
   600     0005                     	;# 
   601     0006                     	;# 
   602     0007                     	;# 
   603     0008                     	;# 
   604     0009                     	;# 
   605     000A                     	;# 
   606     000B                     	;# 
   607     000C                     	;# 
   608     000D                     	;# 
   609     000E                     	;# 
   610     0010                     	;# 
   611     0011                     	;# 
   612     0012                     	;# 
   613     0013                     	;# 
   614     0015                     	;# 
   615     0016                     	;# 
   616     0016                     	;# 
   617     0017                     	;# 
   618     0018                     	;# 
   619     0019                     	;# 
   620     001A                     	;# 
   621     001B                     	;# 
   622     001C                     	;# 
   623     001E                     	;# 
   624     001F                     	;# 
   625     008C                     	;# 
   626     008D                     	;# 
   627     008E                     	;# 
   628     0090                     	;# 
   629     0091                     	;# 
   630     0092                     	;# 
   631     0093                     	;# 
   632     0095                     	;# 
   633     0096                     	;# 
   634     0097                     	;# 
   635     0098                     	;# 
   636     0099                     	;# 
   637     009A                     	;# 
   638     009B                     	;# 
   639     009B                     	;# 
   640     009C                     	;# 
   641     009D                     	;# 
   642     009E                     	;# 
   643     010C                     	;# 
   644     010D                     	;# 
   645     010E                     	;# 
   646     0110                     	;# 
   647     0111                     	;# 
   648     0112                     	;# 
   649     0113                     	;# 
   650     0114                     	;# 
   651     0115                     	;# 
   652     0116                     	;# 
   653     0117                     	;# 
   654     0118                     	;# 
   655     0119                     	;# 
   656     011A                     	;# 
   657     011B                     	;# 
   658     011D                     	;# 
   659     018C                     	;# 
   660     018D                     	;# 
   661     0191                     	;# 
   662     0191                     	;# 
   663     0192                     	;# 
   664     0193                     	;# 
   665     0193                     	;# 
   666     0193                     	;# 
   667     0194                     	;# 
   668     0195                     	;# 
   669     0196                     	;# 
   670     0199                     	;# 
   671     019A                     	;# 
   672     019B                     	;# 
   673     019B                     	;# 
   674     019B                     	;# 
   675     019B                     	;# 
   676     019C                     	;# 
   677     019C                     	;# 
   678     019D                     	;# 
   679     019E                     	;# 
   680     019F                     	;# 
   681     020D                     	;# 
   682     0210                     	;# 
   683     0211                     	;# 
   684     0212                     	;# 
   685     0213                     	;# 
   686     0214                     	;# 
   687     0215                     	;# 
   688     0215                     	;# 
   689     0216                     	;# 
   690     0217                     	;# 
   691     0291                     	;# 
   692     0291                     	;# 
   693     0292                     	;# 
   694     0293                     	;# 
   695     0294                     	;# 
   696     0295                     	;# 
   697     0295                     	;# 
   698     0296                     	;# 
   699     0298                     	;# 
   700     0298                     	;# 
   701     0299                     	;# 
   702     029A                     	;# 
   703     029B                     	;# 
   704     029C                     	;# 
   705     029C                     	;# 
   706     029D                     	;# 
   707     029E                     	;# 
   708     029F                     	;# 
   709     0311                     	;# 
   710     0311                     	;# 
   711     0312                     	;# 
   712     0313                     	;# 
   713     0314                     	;# 
   714     0315                     	;# 
   715     0315                     	;# 
   716     0316                     	;# 
   717     0318                     	;# 
   718     0318                     	;# 
   719     0319                     	;# 
   720     031A                     	;# 
   721     031C                     	;# 
   722     031C                     	;# 
   723     031D                     	;# 
   724     031E                     	;# 
   725     0394                     	;# 
   726     0395                     	;# 
   727     0396                     	;# 
   728     0415                     	;# 
   729     0416                     	;# 
   730     0417                     	;# 
   731     041C                     	;# 
   732     041D                     	;# 
   733     041E                     	;# 
   734     0791                     	;# 
   735     0792                     	;# 
   736     0793                     	;# 
   737     0794                     	;# 
   738     0795                     	;# 
   739     0798                     	;# 
   740     0799                     	;# 
   741     07A0                     	;# 
   742     07A1                     	;# 
   743     07A3                     	;# 
   744     07A4                     	;# 
   745     07A6                     	;# 
   746     07A7                     	;# 
   747     07A9                     	;# 
   748     07AA                     	;# 
   749     0FE4                     	;# 
   750     0FE5                     	;# 
   751     0FE6                     	;# 
   752     0FE7                     	;# 
   753     0FE8                     	;# 
   754     0FE9                     	;# 
   755     0FEA                     	;# 
   756     0FEB                     	;# 
   757     0FED                     	;# 
   758     0FEE                     	;# 
   759     0FEF                     	;# 
   760     0000                     	;# 
   761     0001                     	;# 
   762     0002                     	;# 
   763     0003                     	;# 
   764     0004                     	;# 
   765     0005                     	;# 
   766     0006                     	;# 
   767     0007                     	;# 
   768     0008                     	;# 
   769     0009                     	;# 
   770     000A                     	;# 
   771     000B                     	;# 
   772     000C                     	;# 
   773     000D                     	;# 
   774     000E                     	;# 
   775     0010                     	;# 
   776     0011                     	;# 
   777     0012                     	;# 
   778     0013                     	;# 
   779     0015                     	;# 
   780     0016                     	;# 
   781     0016                     	;# 
   782     0017                     	;# 
   783     0018                     	;# 
   784     0019                     	;# 
   785     001A                     	;# 
   786     001B                     	;# 
   787     001C                     	;# 
   788     001E                     	;# 
   789     001F                     	;# 
   790     008C                     	;# 
   791     008D                     	;# 
   792     008E                     	;# 
   793     0090                     	;# 
   794     0091                     	;# 
   795     0092                     	;# 
   796     0093                     	;# 
   797     0095                     	;# 
   798     0096                     	;# 
   799     0097                     	;# 
   800     0098                     	;# 
   801     0099                     	;# 
   802     009A                     	;# 
   803     009B                     	;# 
   804     009B                     	;# 
   805     009C                     	;# 
   806     009D                     	;# 
   807     009E                     	;# 
   808     010C                     	;# 
   809     010D                     	;# 
   810     010E                     	;# 
   811     0110                     	;# 
   812     0111                     	;# 
   813     0112                     	;# 
   814     0113                     	;# 
   815     0114                     	;# 
   816     0115                     	;# 
   817     0116                     	;# 
   818     0117                     	;# 
   819     0118                     	;# 
   820     0119                     	;# 
   821     011A                     	;# 
   822     011B                     	;# 
   823     011D                     	;# 
   824     018C                     	;# 
   825     018D                     	;# 
   826     0191                     	;# 
   827     0191                     	;# 
   828     0192                     	;# 
   829     0193                     	;# 
   830     0193                     	;# 
   831     0193                     	;# 
   832     0194                     	;# 
   833     0195                     	;# 
   834     0196                     	;# 
   835     0199                     	;# 
   836     019A                     	;# 
   837     019B                     	;# 
   838     019B                     	;# 
   839     019B                     	;# 
   840     019B                     	;# 
   841     019C                     	;# 
   842     019C                     	;# 
   843     019D                     	;# 
   844     019E                     	;# 
   845     019F                     	;# 
   846     020D                     	;# 
   847     0210                     	;# 
   848     0211                     	;# 
   849     0212                     	;# 
   850     0213                     	;# 
   851     0214                     	;# 
   852     0215                     	;# 
   853     0215                     	;# 
   854     0216                     	;# 
   855     0217                     	;# 
   856     0291                     	;# 
   857     0291                     	;# 
   858     0292                     	;# 
   859     0293                     	;# 
   860     0294                     	;# 
   861     0295                     	;# 
   862     0295                     	;# 
   863     0296                     	;# 
   864     0298                     	;# 
   865     0298                     	;# 
   866     0299                     	;# 
   867     029A                     	;# 
   868     029B                     	;# 
   869     029C                     	;# 
   870     029C                     	;# 
   871     029D                     	;# 
   872     029E                     	;# 
   873     029F                     	;# 
   874     0311                     	;# 
   875     0311                     	;# 
   876     0312                     	;# 
   877     0313                     	;# 
   878     0314                     	;# 
   879     0315                     	;# 
   880     0315                     	;# 
   881     0316                     	;# 
   882     0318                     	;# 
   883     0318                     	;# 
   884     0319                     	;# 
   885     031A                     	;# 
   886     031C                     	;# 
   887     031C                     	;# 
   888     031D                     	;# 
   889     031E                     	;# 
   890     0394                     	;# 
   891     0395                     	;# 
   892     0396                     	;# 
   893     0415                     	;# 
   894     0416                     	;# 
   895     0417                     	;# 
   896     041C                     	;# 
   897     041D                     	;# 
   898     041E                     	;# 
   899     0791                     	;# 
   900     0792                     	;# 
   901     0793                     	;# 
   902     0794                     	;# 
   903     0795                     	;# 
   904     0798                     	;# 
   905     0799                     	;# 
   906     07A0                     	;# 
   907     07A1                     	;# 
   908     07A3                     	;# 
   909     07A4                     	;# 
   910     07A6                     	;# 
   911     07A7                     	;# 
   912     07A9                     	;# 
   913     07AA                     	;# 
   914     0FE4                     	;# 
   915     0FE5                     	;# 
   916     0FE6                     	;# 
   917     0FE7                     	;# 
   918     0FE8                     	;# 
   919     0FE9                     	;# 
   920     0FEA                     	;# 
   921     0FEB                     	;# 
   922     0FED                     	;# 
   923     0FEE                     	;# 
   924     0FEF                     	;# 
   925     0000                     	;# 
   926     0001                     	;# 
   927     0002                     	;# 
   928     0003                     	;# 
   929     0004                     	;# 
   930     0005                     	;# 
   931     0006                     	;# 
   932     0007                     	;# 
   933     0008                     	;# 
   934     0009                     	;# 
   935     000A                     	;# 
   936     000B                     	;# 
   937     000C                     	;# 
   938     000D                     	;# 
   939     000E                     	;# 
   940     0010                     	;# 
   941     0011                     	;# 
   942     0012                     	;# 
   943     0013                     	;# 
   944     0015                     	;# 
   945     0016                     	;# 
   946     0016                     	;# 
   947     0017                     	;# 
   948     0018                     	;# 
   949     0019                     	;# 
   950     001A                     	;# 
   951     001B                     	;# 
   952     001C                     	;# 
   953     001E                     	;# 
   954     001F                     	;# 
   955     008C                     	;# 
   956     008D                     	;# 
   957     008E                     	;# 
   958     0090                     	;# 
   959     0091                     	;# 
   960     0092                     	;# 
   961     0093                     	;# 
   962     0095                     	;# 
   963     0096                     	;# 
   964     0097                     	;# 
   965     0098                     	;# 
   966     0099                     	;# 
   967     009A                     	;# 
   968     009B                     	;# 
   969     009B                     	;# 
   970     009C                     	;# 
   971     009D                     	;# 
   972     009E                     	;# 
   973     010C                     	;# 
   974     010D                     	;# 
   975     010E                     	;# 
   976     0110                     	;# 
   977     0111                     	;# 
   978     0112                     	;# 
   979     0113                     	;# 
   980     0114                     	;# 
   981     0115                     	;# 
   982     0116                     	;# 
   983     0117                     	;# 
   984     0118                     	;# 
   985     0119                     	;# 
   986     011A                     	;# 
   987     011B                     	;# 
   988     011D                     	;# 
   989     018C                     	;# 
   990     018D                     	;# 
   991     0191                     	;# 
   992     0191                     	;# 
   993     0192                     	;# 
   994     0193                     	;# 
   995     0193                     	;# 
   996     0193                     	;# 
   997     0194                     	;# 
   998     0195                     	;# 
   999     0196                     	;# 
  1000     0199                     	;# 
  1001     019A                     	;# 
  1002     019B                     	;# 
  1003     019B                     	;# 
  1004     019B                     	;# 
  1005     019B                     	;# 
  1006     019C                     	;# 
  1007     019C                     	;# 
  1008     019D                     	;# 
  1009     019E                     	;# 
  1010     019F                     	;# 
  1011     020D                     	;# 
  1012     0210                     	;# 
  1013     0211                     	;# 
  1014     0212                     	;# 
  1015     0213                     	;# 
  1016     0214                     	;# 
  1017     0215                     	;# 
  1018     0215                     	;# 
  1019     0216                     	;# 
  1020     0217                     	;# 
  1021     0291                     	;# 
  1022     0291                     	;# 
  1023     0292                     	;# 
  1024     0293                     	;# 
  1025     0294                     	;# 
  1026     0295                     	;# 
  1027     0295                     	;# 
  1028     0296                     	;# 
  1029     0298                     	;# 
  1030     0298                     	;# 
  1031     0299                     	;# 
  1032     029A                     	;# 
  1033     029B                     	;# 
  1034     029C                     	;# 
  1035     029C                     	;# 
  1036     029D                     	;# 
  1037     029E                     	;# 
  1038     029F                     	;# 
  1039     0311                     	;# 
  1040     0311                     	;# 
  1041     0312                     	;# 
  1042     0313                     	;# 
  1043     0314                     	;# 
  1044     0315                     	;# 
  1045     0315                     	;# 
  1046     0316                     	;# 
  1047     0318                     	;# 
  1048     0318                     	;# 
  1049     0319                     	;# 
  1050     031A                     	;# 
  1051     031C                     	;# 
  1052     031C                     	;# 
  1053     031D                     	;# 
  1054     031E                     	;# 
  1055     0394                     	;# 
  1056     0395                     	;# 
  1057     0396                     	;# 
  1058     0415                     	;# 
  1059     0416                     	;# 
  1060     0417                     	;# 
  1061     041C                     	;# 
  1062     041D                     	;# 
  1063     041E                     	;# 
  1064     0791                     	;# 
  1065     0792                     	;# 
  1066     0793                     	;# 
  1067     0794                     	;# 
  1068     0795                     	;# 
  1069     0798                     	;# 
  1070     0799                     	;# 
  1071     07A0                     	;# 
  1072     07A1                     	;# 
  1073     07A3                     	;# 
  1074     07A4                     	;# 
  1075     07A6                     	;# 
  1076     07A7                     	;# 
  1077     07A9                     	;# 
  1078     07AA                     	;# 
  1079     0FE4                     	;# 
  1080     0FE5                     	;# 
  1081     0FE6                     	;# 
  1082     0FE7                     	;# 
  1083     0FE8                     	;# 
  1084     0FE9                     	;# 
  1085     0FEA                     	;# 
  1086     0FEB                     	;# 
  1087     0FED                     	;# 
  1088     0FEE                     	;# 
  1089     0FEF                     	;# 
  1090     0000                     	;# 
  1091     0001                     	;# 
  1092     0002                     	;# 
  1093     0003                     	;# 
  1094     0004                     	;# 
  1095     0005                     	;# 
  1096     0006                     	;# 
  1097     0007                     	;# 
  1098     0008                     	;# 
  1099     0009                     	;# 
  1100     000A                     	;# 
  1101     000B                     	;# 
  1102     000C                     	;# 
  1103     000D                     	;# 
  1104     000E                     	;# 
  1105     0010                     	;# 
  1106     0011                     	;# 
  1107     0012                     	;# 
  1108     0013                     	;# 
  1109     0015                     	;# 
  1110     0016                     	;# 
  1111     0016                     	;# 
  1112     0017                     	;# 
  1113     0018                     	;# 
  1114     0019                     	;# 
  1115     001A                     	;# 
  1116     001B                     	;# 
  1117     001C                     	;# 
  1118     001E                     	;# 
  1119     001F                     	;# 
  1120     008C                     	;# 
  1121     008D                     	;# 
  1122     008E                     	;# 
  1123     0090                     	;# 
  1124     0091                     	;# 
  1125     0092                     	;# 
  1126     0093                     	;# 
  1127     0095                     	;# 
  1128     0096                     	;# 
  1129     0097                     	;# 
  1130     0098                     	;# 
  1131     0099                     	;# 
  1132     009A                     	;# 
  1133     009B                     	;# 
  1134     009B                     	;# 
  1135     009C                     	;# 
  1136     009D                     	;# 
  1137     009E                     	;# 
  1138     010C                     	;# 
  1139     010D                     	;# 
  1140     010E                     	;# 
  1141     0110                     	;# 
  1142     0111                     	;# 
  1143     0112                     	;# 
  1144     0113                     	;# 
  1145     0114                     	;# 
  1146     0115                     	;# 
  1147     0116                     	;# 
  1148     0117                     	;# 
  1149     0118                     	;# 
  1150     0119                     	;# 
  1151     011A                     	;# 
  1152     011B                     	;# 
  1153     011D                     	;# 
  1154     018C                     	;# 
  1155     018D                     	;# 
  1156     0191                     	;# 
  1157     0191                     	;# 
  1158     0192                     	;# 
  1159     0193                     	;# 
  1160     0193                     	;# 
  1161     0193                     	;# 
  1162     0194                     	;# 
  1163     0195                     	;# 
  1164     0196                     	;# 
  1165     0199                     	;# 
  1166     019A                     	;# 
  1167     019B                     	;# 
  1168     019B                     	;# 
  1169     019B                     	;# 
  1170     019B                     	;# 
  1171     019C                     	;# 
  1172     019C                     	;# 
  1173     019D                     	;# 
  1174     019E                     	;# 
  1175     019F                     	;# 
  1176     020D                     	;# 
  1177     0210                     	;# 
  1178     0211                     	;# 
  1179     0212                     	;# 
  1180     0213                     	;# 
  1181     0214                     	;# 
  1182     0215                     	;# 
  1183     0215                     	;# 
  1184     0216                     	;# 
  1185     0217                     	;# 
  1186     0291                     	;# 
  1187     0291                     	;# 
  1188     0292                     	;# 
  1189     0293                     	;# 
  1190     0294                     	;# 
  1191     0295                     	;# 
  1192     0295                     	;# 
  1193     0296                     	;# 
  1194     0298                     	;# 
  1195     0298                     	;# 
  1196     0299                     	;# 
  1197     029A                     	;# 
  1198     029B                     	;# 
  1199     029C                     	;# 
  1200     029C                     	;# 
  1201     029D                     	;# 
  1202     029E                     	;# 
  1203     029F                     	;# 
  1204     0311                     	;# 
  1205     0311                     	;# 
  1206     0312                     	;# 
  1207     0313                     	;# 
  1208     0314                     	;# 
  1209     0315                     	;# 
  1210     0315                     	;# 
  1211     0316                     	;# 
  1212     0318                     	;# 
  1213     0318                     	;# 
  1214     0319                     	;# 
  1215     031A                     	;# 
  1216     031C                     	;# 
  1217     031C                     	;# 
  1218     031D                     	;# 
  1219     031E                     	;# 
  1220     0394                     	;# 
  1221     0395                     	;# 
  1222     0396                     	;# 
  1223     0415                     	;# 
  1224     0416                     	;# 
  1225     0417                     	;# 
  1226     041C                     	;# 
  1227     041D                     	;# 
  1228     041E                     	;# 
  1229     0791                     	;# 
  1230     0792                     	;# 
  1231     0793                     	;# 
  1232     0794                     	;# 
  1233     0795                     	;# 
  1234     0798                     	;# 
  1235     0799                     	;# 
  1236     07A0                     	;# 
  1237     07A1                     	;# 
  1238     07A3                     	;# 
  1239     07A4                     	;# 
  1240     07A6                     	;# 
  1241     07A7                     	;# 
  1242     07A9                     	;# 
  1243     07AA                     	;# 
  1244     0FE4                     	;# 
  1245     0FE5                     	;# 
  1246     0FE6                     	;# 
  1247     0FE7                     	;# 
  1248     0FE8                     	;# 
  1249     0FE9                     	;# 
  1250     0FEA                     	;# 
  1251     0FEB                     	;# 
  1252     0FED                     	;# 
  1253     0FEE                     	;# 
  1254     0FEF                     	;# 
  1255     0000                     	;# 
  1256     0001                     	;# 
  1257     0002                     	;# 
  1258     0003                     	;# 
  1259     0004                     	;# 
  1260     0005                     	;# 
  1261     0006                     	;# 
  1262     0007                     	;# 
  1263     0008                     	;# 
  1264     0009                     	;# 
  1265     000A                     	;# 
  1266     000B                     	;# 
  1267     000C                     	;# 
  1268     000D                     	;# 
  1269     000E                     	;# 
  1270     0010                     	;# 
  1271     0011                     	;# 
  1272     0012                     	;# 
  1273     0013                     	;# 
  1274     0015                     	;# 
  1275     0016                     	;# 
  1276     0016                     	;# 
  1277     0017                     	;# 
  1278     0018                     	;# 
  1279     0019                     	;# 
  1280     001A                     	;# 
  1281     001B                     	;# 
  1282     001C                     	;# 
  1283     001E                     	;# 
  1284     001F                     	;# 
  1285     008C                     	;# 
  1286     008D                     	;# 
  1287     008E                     	;# 
  1288     0090                     	;# 
  1289     0091                     	;# 
  1290     0092                     	;# 
  1291     0093                     	;# 
  1292     0095                     	;# 
  1293     0096                     	;# 
  1294     0097                     	;# 
  1295     0098                     	;# 
  1296     0099                     	;# 
  1297     009A                     	;# 
  1298     009B                     	;# 
  1299     009B                     	;# 
  1300     009C                     	;# 
  1301     009D                     	;# 
  1302     009E                     	;# 
  1303     010C                     	;# 
  1304     010D                     	;# 
  1305     010E                     	;# 
  1306     0110                     	;# 
  1307     0111                     	;# 
  1308     0112                     	;# 
  1309     0113                     	;# 
  1310     0114                     	;# 
  1311     0115                     	;# 
  1312     0116                     	;# 
  1313     0117                     	;# 
  1314     0118                     	;# 
  1315     0119                     	;# 
  1316     011A                     	;# 
  1317     011B                     	;# 
  1318     011D                     	;# 
  1319     018C                     	;# 
  1320     018D                     	;# 
  1321     0191                     	;# 
  1322     0191                     	;# 
  1323     0192                     	;# 
  1324     0193                     	;# 
  1325     0193                     	;# 
  1326     0193                     	;# 
  1327     0194                     	;# 
  1328     0195                     	;# 
  1329     0196                     	;# 
  1330     0199                     	;# 
  1331     019A                     	;# 
  1332     019B                     	;# 
  1333     019B                     	;# 
  1334     019B                     	;# 
  1335     019B                     	;# 
  1336     019C                     	;# 
  1337     019C                     	;# 
  1338     019D                     	;# 
  1339     019E                     	;# 
  1340     019F                     	;# 
  1341     020D                     	;# 
  1342     0210                     	;# 
  1343     0211                     	;# 
  1344     0212                     	;# 
  1345     0213                     	;# 
  1346     0214                     	;# 
  1347     0215                     	;# 
  1348     0215                     	;# 
  1349     0216                     	;# 
  1350     0217                     	;# 
  1351     0291                     	;# 
  1352     0291                     	;# 
  1353     0292                     	;# 
  1354     0293                     	;# 
  1355     0294                     	;# 
  1356     0295                     	;# 
  1357     0295                     	;# 
  1358     0296                     	;# 
  1359     0298                     	;# 
  1360     0298                     	;# 
  1361     0299                     	;# 
  1362     029A                     	;# 
  1363     029B                     	;# 
  1364     029C                     	;# 
  1365     029C                     	;# 
  1366     029D                     	;# 
  1367     029E                     	;# 
  1368     029F                     	;# 
  1369     0311                     	;# 
  1370     0311                     	;# 
  1371     0312                     	;# 
  1372     0313                     	;# 
  1373     0314                     	;# 
  1374     0315                     	;# 
  1375     0315                     	;# 
  1376     0316                     	;# 
  1377     0318                     	;# 
  1378     0318                     	;# 
  1379     0319                     	;# 
  1380     031A                     	;# 
  1381     031C                     	;# 
  1382     031C                     	;# 
  1383     031D                     	;# 
  1384     031E                     	;# 
  1385     0394                     	;# 
  1386     0395                     	;# 
  1387     0396                     	;# 
  1388     0415                     	;# 
  1389     0416                     	;# 
  1390     0417                     	;# 
  1391     041C                     	;# 
  1392     041D                     	;# 
  1393     041E                     	;# 
  1394     0791                     	;# 
  1395     0792                     	;# 
  1396     0793                     	;# 
  1397     0794                     	;# 
  1398     0795                     	;# 
  1399     0798                     	;# 
  1400     0799                     	;# 
  1401     07A0                     	;# 
  1402     07A1                     	;# 
  1403     07A3                     	;# 
  1404     07A4                     	;# 
  1405     07A6                     	;# 
  1406     07A7                     	;# 
  1407     07A9                     	;# 
  1408     07AA                     	;# 
  1409     0FE4                     	;# 
  1410     0FE5                     	;# 
  1411     0FE6                     	;# 
  1412     0FE7                     	;# 
  1413     0FE8                     	;# 
  1414     0FE9                     	;# 
  1415     0FEA                     	;# 
  1416     0FEB                     	;# 
  1417     0FED                     	;# 
  1418     0FEE                     	;# 
  1419     0FEF                     	;# 
  1420     0000                     	;# 
  1421     0001                     	;# 
  1422     0002                     	;# 
  1423     0003                     	;# 
  1424     0004                     	;# 
  1425     0005                     	;# 
  1426     0006                     	;# 
  1427     0007                     	;# 
  1428     0008                     	;# 
  1429     0009                     	;# 
  1430     000A                     	;# 
  1431     000B                     	;# 
  1432     000C                     	;# 
  1433     000D                     	;# 
  1434     000E                     	;# 
  1435     0010                     	;# 
  1436     0011                     	;# 
  1437     0012                     	;# 
  1438     0013                     	;# 
  1439     0015                     	;# 
  1440     0016                     	;# 
  1441     0016                     	;# 
  1442     0017                     	;# 
  1443     0018                     	;# 
  1444     0019                     	;# 
  1445     001A                     	;# 
  1446     001B                     	;# 
  1447     001C                     	;# 
  1448     001E                     	;# 
  1449     001F                     	;# 
  1450     008C                     	;# 
  1451     008D                     	;# 
  1452     008E                     	;# 
  1453     0090                     	;# 
  1454     0091                     	;# 
  1455     0092                     	;# 
  1456     0093                     	;# 
  1457     0095                     	;# 
  1458     0096                     	;# 
  1459     0097                     	;# 
  1460     0098                     	;# 
  1461     0099                     	;# 
  1462     009A                     	;# 
  1463     009B                     	;# 
  1464     009B                     	;# 
  1465     009C                     	;# 
  1466     009D                     	;# 
  1467     009E                     	;# 
  1468     010C                     	;# 
  1469     010D                     	;# 
  1470     010E                     	;# 
  1471     0110                     	;# 
  1472     0111                     	;# 
  1473     0112                     	;# 
  1474     0113                     	;# 
  1475     0114                     	;# 
  1476     0115                     	;# 
  1477     0116                     	;# 
  1478     0117                     	;# 
  1479     0118                     	;# 
  1480     0119                     	;# 
  1481     011A                     	;# 
  1482     011B                     	;# 
  1483     011D                     	;# 
  1484     018C                     	;# 
  1485     018D                     	;# 
  1486     0191                     	;# 
  1487     0191                     	;# 
  1488     0192                     	;# 
  1489     0193                     	;# 
  1490     0193                     	;# 
  1491     0193                     	;# 
  1492     0194                     	;# 
  1493     0195                     	;# 
  1494     0196                     	;# 
  1495     0199                     	;# 
  1496     019A                     	;# 
  1497     019B                     	;# 
  1498     019B                     	;# 
  1499     019B                     	;# 
  1500     019B                     	;# 
  1501     019C                     	;# 
  1502     019C                     	;# 
  1503     019D                     	;# 
  1504     019E                     	;# 
  1505     019F                     	;# 
  1506     020D                     	;# 
  1507     0210                     	;# 
  1508     0211                     	;# 
  1509     0212                     	;# 
  1510     0213                     	;# 
  1511     0214                     	;# 
  1512     0215                     	;# 
  1513     0215                     	;# 
  1514     0216                     	;# 
  1515     0217                     	;# 
  1516     0291                     	;# 
  1517     0291                     	;# 
  1518     0292                     	;# 
  1519     0293                     	;# 
  1520     0294                     	;# 
  1521     0295                     	;# 
  1522     0295                     	;# 
  1523     0296                     	;# 
  1524     0298                     	;# 
  1525     0298                     	;# 
  1526     0299                     	;# 
  1527     029A                     	;# 
  1528     029B                     	;# 
  1529     029C                     	;# 
  1530     029C                     	;# 
  1531     029D                     	;# 
  1532     029E                     	;# 
  1533     029F                     	;# 
  1534     0311                     	;# 
  1535     0311                     	;# 
  1536     0312                     	;# 
  1537     0313                     	;# 
  1538     0314                     	;# 
  1539     0315                     	;# 
  1540     0315                     	;# 
  1541     0316                     	;# 
  1542     0318                     	;# 
  1543     0318                     	;# 
  1544     0319                     	;# 
  1545     031A                     	;# 
  1546     031C                     	;# 
  1547     031C                     	;# 
  1548     031D                     	;# 
  1549     031E                     	;# 
  1550     0394                     	;# 
  1551     0395                     	;# 
  1552     0396                     	;# 
  1553     0415                     	;# 
  1554     0416                     	;# 
  1555     0417                     	;# 
  1556     041C                     	;# 
  1557     041D                     	;# 
  1558     041E                     	;# 
  1559     0791                     	;# 
  1560     0792                     	;# 
  1561     0793                     	;# 
  1562     0794                     	;# 
  1563     0795                     	;# 
  1564     0798                     	;# 
  1565     0799                     	;# 
  1566     07A0                     	;# 
  1567     07A1                     	;# 
  1568     07A3                     	;# 
  1569     07A4                     	;# 
  1570     07A6                     	;# 
  1571     07A7                     	;# 
  1572     07A9                     	;# 
  1573     07AA                     	;# 
  1574     0FE4                     	;# 
  1575     0FE5                     	;# 
  1576     0FE6                     	;# 
  1577     0FE7                     	;# 
  1578     0FE8                     	;# 
  1579     0FE9                     	;# 
  1580     0FEA                     	;# 
  1581     0FEB                     	;# 
  1582     0FED                     	;# 
  1583     0FEE                     	;# 
  1584     0FEF                     	;# 
  1585                           
  1586                           	psect	idataBANK0
  1587     061F                     __pidataBANK0:
  1588                           
  1589                           ;initializer for _LIN_timeout
  1590     061F  340A               	retlw	10
  1591                           
  1592                           	psect	stringtext1
  1593     060C                     __pstringtext1:
  1594     060C                     _scheduleTable:
  1595     060C  3401               	retlw	1
  1596     060D  3401               	retlw	1
  1597     060E  3408               	retlw	8
  1598     060F  34A0               	retlw	low (_SW_STATE_Data| 0)
  1599     0610                     __end_of_scheduleTable:
  1600     0011                     _PIR1bits	set	17
  1601     000B                     _INTCONbits	set	11
  1602     0015                     _TMR0	set	21
  1603     0097                     _WDTCON	set	151
  1604     0098                     _OSCTUNE	set	152
  1605     0099                     _OSCCON	set	153
  1606     0095                     _OPTION_REG	set	149
  1607     0095                     _OPTION_REGbits	set	149
  1608     008E                     _TRISC	set	142
  1609     008D                     _TRISB	set	141
  1610     008C                     _TRISA	set	140
  1611     0090                     _TRISE	set	144
  1612     0091                     _PIE1bits	set	145
  1613     04D6                     _PLLR	set	1238
  1614     0116                     _BORCON	set	278
  1615     011D                     _APFCON	set	285
  1616     010E                     _LATC	set	270
  1617     010D                     _LATB	set	269
  1618     010C                     _LATA	set	268
  1619     0110                     _LATE	set	272
  1620     010D                     _LATBbits	set	269
  1621     0199                     _RCREG	set	409
  1622     019A                     _TXREG	set	410
  1623     019C                     _SPBRGH	set	412
  1624     019B                     _SPBRGL	set	411
  1625     019E                     _TXSTA	set	414
  1626     019D                     _RCSTA	set	413
  1627     019F                     _BAUDCON	set	415
  1628     018C                     _ANSELA	set	396
  1629     018D                     _ANSELB	set	397
  1630     019D                     _RCSTAbits	set	413
  1631     019E                     _TXSTAbits	set	414
  1632     020D                     _WPUB	set	525
  1633     0210                     _WPUE	set	528
  1634                           
  1635                           	psect	cinit
  1636     003A                     start_initialization:	
  1637                           ; #config settings
  1638                           
  1639     003A                     __initialization:
  1640                           
  1641                           ; Initialize objects allocated to BANK0
  1642     003A  3186  261F  3180   	fcall	__pidataBANK0	;fetch initializer
  1643     003D  00ED               	movwf	__pdataBANK0& (0+127)
  1644                           
  1645                           ; Clear objects allocated to COMMON
  1646     003E  01FC               	clrf	__pbssCOMMON& (0+127)
  1647                           
  1648                           ; Clear objects allocated to BANK0
  1649     003F  3020               	movlw	low __pbssBANK0
  1650     0040  0084               	movwf	4
  1651     0041  3000               	movlw	high __pbssBANK0
  1652     0042  0085               	movwf	5
  1653     0043  3042               	movlw	66
  1654     0044  3185  25C9  3180   	fcall	clear_ram0
  1655                           
  1656                           ; Clear objects allocated to BANK1
  1657     0047  30A0               	movlw	low __pbssBANK1
  1658     0048  0084               	movwf	4
  1659     0049  3000               	movlw	high __pbssBANK1
  1660     004A  0085               	movwf	5
  1661     004B  3008               	movlw	8
  1662     004C  3185  25C9  3180   	fcall	clear_ram0
  1663     004F                     end_of_initialization:	
  1664                           ;End of C runtime variable initialization code
  1665                           
  1666     004F                     __end_of__initialization:
  1667     004F  107E               	bcf	int$flags,0	;clear compiler interrupt flag (level 1)
  1668     0050  0020               	movlb	0
  1669     0051  3185  2DAD         	ljmp	_main	;jump to C main() function
  1670                           
  1671                           	psect	bssCOMMON
  1672     007C                     __pbssCOMMON:
  1673     007C                     _eusartRxHead:
  1674     007C                     	ds	1
  1675                           
  1676                           	psect	bssBANK0
  1677     0020                     __pbssBANK0:
  1678     0020                     _eusartRxStatusBuffer:
  1679     0020                     	ds	8
  1680     0028                     _eusartRxBuffer:
  1681     0028                     	ds	8
  1682     0030                     _eusartTxBuffer:
  1683     0030                     	ds	8
  1684     0038                     _TMR0_InterruptHandler:
  1685     0038                     	ds	2
  1686     003A                     _EUSART_ErrorHandler:
  1687     003A                     	ds	2
  1688     003C                     _EUSART_OverrunErrorHandler:
  1689     003C                     	ds	2
  1690     003E                     _EUSART_FramingErrorHandler:
  1691     003E                     	ds	2
  1692     0040                     _EUSART_RxDefaultInterruptHandler:
  1693     0040                     	ds	2
  1694     0042                     _EUSART_TxDefaultInterruptHandler:
  1695     0042                     	ds	2
  1696     0044                     _LIN_rxCommand:
  1697     0044                     	ds	2
  1698     0046                     _LIN_processData:
  1699     0046                     	ds	2
  1700     0048                     _timer0ReloadVal:
  1701     0048                     	ds	1
  1702     0049                     _eusartRxLastError:
  1703     0049                     	ds	1
  1704     004A                     _eusartRxCount:
  1705     004A                     	ds	1
  1706     004B                     _eusartRxTail:
  1707     004B                     	ds	1
  1708     004C                     _eusartTxBufferRemaining:
  1709     004C                     	ds	1
  1710     004D                     _eusartTxTail:
  1711     004D                     	ds	1
  1712     004E                     _eusartTxHead:
  1713     004E                     	ds	1
  1714     004F                     LIN_handler@rxDataIndex:
  1715     004F                     	ds	1
  1716     0050                     LIN_handler@LIN_rxState:
  1717     0050                     	ds	1
  1718     0051                     _CountCallBack:
  1719     0051                     	ds	1
  1720     0052                     _LIN_timerRunning:
  1721     0052                     	ds	1
  1722     0053                     _LIN_rxCommandLength:
  1723     0053                     	ds	1
  1724     0054                     _LIN_rxInProgress:
  1725     0054                     	ds	1
  1726     0055                     _LIN_packet:
  1727     0055                     	ds	13
  1728                           
  1729                           	psect	dataBANK0
  1730     006D                     __pdataBANK0:
  1731     006D                     _LIN_timeout:
  1732     006D                     	ds	1
  1733                           
  1734                           	psect	bssBANK1
  1735     00A0                     __pbssBANK1:
  1736     00A0                     _SW_STATE_Data:
  1737     00A0                     	ds	8
  1738                           
  1739                           	psect	clrtext
  1740     05C9                     clear_ram0:	
  1741                           ;	Called with FSR0 containing the base address, and
  1742                           ;	WREG with the size to clear
  1743                           
  1744     05C9  0064               	clrwdt	;clear the watchdog before getting into this loop
  1745     05CA                     clrloop0:
  1746     05CA  0180               	clrf	0	;clear RAM location pointed to by FSR
  1747     05CB  3101               	addfsr 0,1
  1748     05CC  0B89               	decfsz	9,f	;Have we reached the end of clearing yet?
  1749     05CD  2DCA               	goto	clrloop0	;have we reached the end yet?
  1750     05CE  3400               	retlw	0	;all done for this memory range, return
  1751                           
  1752                           	psect	cstackBANK1
  1753     00A8                     __pcstackBANK1:
  1754     00A8                     ??_LIN_handler:
  1755                           
  1756                           ; 1 bytes @ 0x0
  1757     00A8                     	ds	3
  1758                           
  1759                           	psect	cstackCOMMON
  1760     0070                     __pcstackCOMMON:
  1761     0070                     ?_processLIN:
  1762     0070                     ?_LIN_getPacket:	
  1763                           ; 1 bytes @ 0x0
  1764                           
  1765     0070                     ?_LIN_stopTimer:	
  1766                           ; 1 bytes @ 0x0
  1767                           
  1768     0070                     ?_LIN_enableRx:	
  1769                           ; 1 bytes @ 0x0
  1770                           
  1771     0070                     ?_LIN_setTimerHandler:	
  1772                           ; 1 bytes @ 0x0
  1773                           
  1774     0070                     ?_EUSART_is_rx_ready:	
  1775                           ; 1 bytes @ 0x0
  1776                           
  1777     0070                     ?_LIN_startTimer:	
  1778                           ; 1 bytes @ 0x0
  1779                           
  1780     0070                     ?_LIN_breakCheck:	
  1781                           ; 1 bytes @ 0x0
  1782                           
  1783     0070                     ?_EUSART_Read:	
  1784                           ; 1 bytes @ 0x0
  1785                           
  1786     0070                     ?_LIN_checkPID:	
  1787                           ; 1 bytes @ 0x0
  1788                           
  1789     0070                     ?_LIN_disableRx:	
  1790                           ; 1 bytes @ 0x0
  1791                           
  1792     0070                     ?_EUSART_Write:	
  1793                           ; 1 bytes @ 0x0
  1794                           
  1795     0070                     ?_LIN_calcParity:	
  1796                           ; 1 bytes @ 0x0
  1797                           
  1798     0070                     ?_TMR0_WriteTimer:	
  1799                           ; 1 bytes @ 0x0
  1800                           
  1801     0070                     ?_EUSART_get_last_status:	
  1802                           ; 1 bytes @ 0x0
  1803                           
  1804     0070                     ?_EUSART_Receive_ISR:	
  1805                           ; 1 bytes @ 0x0
  1806                           
  1807     0070                     ?_EUSART_Transmit_ISR:	
  1808                           ; 1 bytes @ 0x0
  1809                           
  1810     0070                     ??_EUSART_Transmit_ISR:	
  1811                           ; 1 bytes @ 0x0
  1812                           
  1813     0070                     ?_EUSART_DefaultFramingErrorHandler:	
  1814                           ; 1 bytes @ 0x0
  1815                           
  1816     0070                     ??_EUSART_DefaultFramingErrorHandler:	
  1817                           ; 1 bytes @ 0x0
  1818                           
  1819     0070                     ?_EUSART_DefaultOverrunErrorHandler:	
  1820                           ; 1 bytes @ 0x0
  1821                           
  1822     0070                     ??_EUSART_DefaultOverrunErrorHandler:	
  1823                           ; 1 bytes @ 0x0
  1824                           
  1825     0070                     ?_EUSART_DefaultErrorHandler:	
  1826                           ; 1 bytes @ 0x0
  1827                           
  1828     0070                     ?_EUSART_RxDataHandler:	
  1829                           ; 1 bytes @ 0x0
  1830                           
  1831     0070                     ??_EUSART_RxDataHandler:	
  1832                           ; 1 bytes @ 0x0
  1833                           
  1834     0070                     ?_TMR0_DefaultInterruptHandler:	
  1835                           ; 1 bytes @ 0x0
  1836                           
  1837     0070                     ??_TMR0_DefaultInterruptHandler:	
  1838                           ; 1 bytes @ 0x0
  1839                           
  1840     0070                     ?_OSCILLATOR_Initialize:	
  1841                           ; 1 bytes @ 0x0
  1842                           
  1843     0070                     ?_WDT_Initialize:	
  1844                           ; 1 bytes @ 0x0
  1845                           
  1846     0070                     ?_LIN_Slave_Initialize:	
  1847                           ; 1 bytes @ 0x0
  1848                           
  1849     0070                     ?_LIN_queuePacket:	
  1850                           ; 1 bytes @ 0x0
  1851                           
  1852     0070                     ?_LIN_handler:	
  1853                           ; 1 bytes @ 0x0
  1854                           
  1855     0070                     ?_LIN_timerHandler:	
  1856                           ; 1 bytes @ 0x0
  1857                           
  1858     0070                     ??_LIN_timerHandler:	
  1859                           ; 1 bytes @ 0x0
  1860                           
  1861     0070                     ?_PIN_MANAGER_Initialize:	
  1862                           ; 1 bytes @ 0x0
  1863                           
  1864     0070                     ?_EUSART_Initialize:	
  1865                           ; 1 bytes @ 0x0
  1866                           
  1867     0070                     ?_TMR0_Initialize:	
  1868                           ; 1 bytes @ 0x0
  1869                           
  1870     0070                     ?_TMR0_ISR:	
  1871                           ; 1 bytes @ 0x0
  1872                           
  1873     0070                     ?_INTERRUPT_InterruptManager:	
  1874                           ; 1 bytes @ 0x0
  1875                           
  1876     0070                     ?_SYSTEM_Initialize:	
  1877                           ; 1 bytes @ 0x0
  1878                           
  1879     0070                     ?_main:	
  1880                           ; 1 bytes @ 0x0
  1881                           
  1882     0070                     ?i1_LIN_stopTimer:	
  1883                           ; 1 bytes @ 0x0
  1884                           
  1885     0070                     ??i1_LIN_stopTimer:	
  1886                           ; 1 bytes @ 0x0
  1887                           
  1888                           
  1889                           ; 1 bytes @ 0x0
  1890     0070                     	ds	1
  1891     0071                     ??_LIN_stopTimer:
  1892     0071                     ??_LIN_enableRx:	
  1893                           ; 1 bytes @ 0x1
  1894                           
  1895     0071                     ?_memcpy:	
  1896                           ; 1 bytes @ 0x1
  1897                           
  1898     0071                     ?_LIN_getChecksum:	
  1899                           ; 1 bytes @ 0x1
  1900                           
  1901     0071                     ??_EUSART_is_rx_ready:	
  1902                           ; 1 bytes @ 0x1
  1903                           
  1904     0071                     ??_EUSART_Read:	
  1905                           ; 1 bytes @ 0x1
  1906                           
  1907     0071                     ?_LIN_getFromTable:	
  1908                           ; 1 bytes @ 0x1
  1909                           
  1910     0071                     ??_LIN_disableRx:	
  1911                           ; 1 bytes @ 0x1
  1912                           
  1913     0071                     ?_memset:	
  1914                           ; 1 bytes @ 0x1
  1915                           
  1916     0071                     ??_EUSART_Write:	
  1917                           ; 1 bytes @ 0x1
  1918                           
  1919     0071                     ??_LIN_calcParity:	
  1920                           ; 1 bytes @ 0x1
  1921                           
  1922     0071                     ??_TMR0_WriteTimer:	
  1923                           ; 1 bytes @ 0x1
  1924                           
  1925     0071                     ?_TMR0_SetInterruptHandler:	
  1926                           ; 1 bytes @ 0x1
  1927                           
  1928     0071                     ??_EUSART_get_last_status:	
  1929                           ; 1 bytes @ 0x1
  1930                           
  1931     0071                     ?_EUSART_SetRxInterruptHandler:	
  1932                           ; 1 bytes @ 0x1
  1933                           
  1934     0071                     ??_EUSART_Receive_ISR:	
  1935                           ; 1 bytes @ 0x1
  1936                           
  1937     0071                     ?_EUSART_SetTxInterruptHandler:	
  1938                           ; 1 bytes @ 0x1
  1939                           
  1940     0071                     ?_EUSART_SetFramingErrorHandler:	
  1941                           ; 1 bytes @ 0x1
  1942                           
  1943     0071                     ?_EUSART_SetOverrunErrorHandler:	
  1944                           ; 1 bytes @ 0x1
  1945                           
  1946     0071                     ?_EUSART_SetErrorHandler:	
  1947                           ; 1 bytes @ 0x1
  1948                           
  1949     0071                     ??_EUSART_DefaultErrorHandler:	
  1950                           ; 1 bytes @ 0x1
  1951                           
  1952     0071                     ??_OSCILLATOR_Initialize:	
  1953                           ; 1 bytes @ 0x1
  1954                           
  1955     0071                     ??_WDT_Initialize:	
  1956                           ; 1 bytes @ 0x1
  1957                           
  1958     0071                     ??_PIN_MANAGER_Initialize:	
  1959                           ; 1 bytes @ 0x1
  1960                           
  1961     0071                     ??_TMR0_ISR:	
  1962                           ; 1 bytes @ 0x1
  1963                           
  1964     0071                     ??_INTERRUPT_InterruptManager:	
  1965                           ; 1 bytes @ 0x1
  1966                           
  1967     0071                     LIN_getFromTable@param:	
  1968                           ; 1 bytes @ 0x1
  1969                           
  1970     0071                     LIN_getChecksum@pid:	
  1971                           ; 1 bytes @ 0x1
  1972                           
  1973     0071                     TMR0_WriteTimer@timerVal:	
  1974                           ; 1 bytes @ 0x1
  1975                           
  1976     0071                     memcpy@s1:	
  1977                           ; 1 bytes @ 0x1
  1978                           
  1979     0071                     EUSART_SetFramingErrorHandler@interruptHandler:	
  1980                           ; 1 bytes @ 0x1
  1981                           
  1982     0071                     EUSART_SetOverrunErrorHandler@interruptHandler:	
  1983                           ; 2 bytes @ 0x1
  1984                           
  1985     0071                     EUSART_SetErrorHandler@interruptHandler:	
  1986                           ; 2 bytes @ 0x1
  1987                           
  1988     0071                     EUSART_SetTxInterruptHandler@interruptHandler:	
  1989                           ; 2 bytes @ 0x1
  1990                           
  1991     0071                     EUSART_SetRxInterruptHandler@interruptHandler:	
  1992                           ; 2 bytes @ 0x1
  1993                           
  1994     0071                     TMR0_SetInterruptHandler@InterruptHandler:	
  1995                           ; 2 bytes @ 0x1
  1996                           
  1997     0071                     memset@c:	
  1998                           ; 2 bytes @ 0x1
  1999                           
  2000                           
  2001                           ; 2 bytes @ 0x1
  2002     0071                     	ds	1
  2003     0072                     ??_LIN_startTimer:
  2004     0072                     ??_LIN_getFromTable:	
  2005                           ; 1 bytes @ 0x2
  2006                           
  2007     0072                     LIN_calcParity@CMD:	
  2008                           ; 1 bytes @ 0x2
  2009                           
  2010     0072                     LIN_getChecksum@data:	
  2011                           ; 1 bytes @ 0x2
  2012                           
  2013     0072                     LIN_startTimer@timeout:	
  2014                           ; 1 bytes @ 0x2
  2015                           
  2016     0072                     EUSART_Read@readValue:	
  2017                           ; 1 bytes @ 0x2
  2018                           
  2019     0072                     EUSART_Write@txData:	
  2020                           ; 1 bytes @ 0x2
  2021                           
  2022     0072                     memcpy@n:	
  2023                           ; 1 bytes @ 0x2
  2024                           
  2025                           
  2026                           ; 2 bytes @ 0x2
  2027     0072                     	ds	1
  2028     0073                     ?_LIN_init:
  2029     0073                     ??_LIN_setTimerHandler:	
  2030                           ; 1 bytes @ 0x3
  2031                           
  2032     0073                     ??_LIN_getChecksum:	
  2033                           ; 1 bytes @ 0x3
  2034                           
  2035     0073                     ??_LIN_breakCheck:	
  2036                           ; 1 bytes @ 0x3
  2037                           
  2038     0073                     ??_TMR0_SetInterruptHandler:	
  2039                           ; 1 bytes @ 0x3
  2040                           
  2041     0073                     ??_EUSART_SetRxInterruptHandler:	
  2042                           ; 1 bytes @ 0x3
  2043                           
  2044     0073                     ??_EUSART_SetTxInterruptHandler:	
  2045                           ; 1 bytes @ 0x3
  2046                           
  2047     0073                     ??_EUSART_SetFramingErrorHandler:	
  2048                           ; 1 bytes @ 0x3
  2049                           
  2050     0073                     ??_EUSART_SetOverrunErrorHandler:	
  2051                           ; 1 bytes @ 0x3
  2052                           
  2053     0073                     ??_EUSART_SetErrorHandler:	
  2054                           ; 1 bytes @ 0x3
  2055                           
  2056     0073                     ??_EUSART_Initialize:	
  2057                           ; 1 bytes @ 0x3
  2058                           
  2059     0073                     ??_TMR0_Initialize:	
  2060                           ; 1 bytes @ 0x3
  2061                           
  2062     0073                     LIN_calcParity@PID:	
  2063                           ; 1 bytes @ 0x3
  2064                           
  2065     0073                     LIN_init@command:	
  2066                           ; 1 bytes @ 0x3
  2067                           
  2068     0073                     memset@n:	
  2069                           ; 2 bytes @ 0x3
  2070                           
  2071                           
  2072                           ; 2 bytes @ 0x3
  2073     0073                     	ds	1
  2074     0074                     ??_memcpy:
  2075     0074                     LIN_getFromTable@cmd:	
  2076                           ; 1 bytes @ 0x4
  2077                           
  2078                           
  2079                           ; 1 bytes @ 0x4
  2080     0074                     	ds	1
  2081     0075                     ??_memset:
  2082     0075                     LIN_getFromTable@length:	
  2083                           ; 1 bytes @ 0x5
  2084                           
  2085     0075                     LIN_getChecksum@length:	
  2086                           ; 1 bytes @ 0x5
  2087                           
  2088     0075                     memcpy@tmp:	
  2089                           ; 1 bytes @ 0x5
  2090                           
  2091     0075                     LIN_init@processData:	
  2092                           ; 1 bytes @ 0x5
  2093                           
  2094                           
  2095                           ; 2 bytes @ 0x5
  2096     0075                     	ds	1
  2097     0076                     LIN_getChecksum@i:
  2098     0076                     memcpy@d:	
  2099                           ; 1 bytes @ 0x6
  2100                           
  2101     0076                     memset@p:	
  2102                           ; 1 bytes @ 0x6
  2103                           
  2104     0076                     LIN_getFromTable@rxCommand:	
  2105                           ; 1 bytes @ 0x6
  2106                           
  2107                           
  2108                           ; 2 bytes @ 0x6
  2109     0076                     	ds	1
  2110     0077                     ??_LIN_init:
  2111     0077                     LIN_init@tableLength:	
  2112                           ; 1 bytes @ 0x7
  2113                           
  2114     0077                     memcpy@s:	
  2115                           ; 1 bytes @ 0x7
  2116                           
  2117     0077                     memset@dest:	
  2118                           ; 1 bytes @ 0x7
  2119                           
  2120     0077                     LIN_getChecksum@checksum:	
  2121                           ; 1 bytes @ 0x7
  2122                           
  2123                           
  2124                           ; 2 bytes @ 0x7
  2125     0077                     	ds	1
  2126     0078                     ??_LIN_checkPID:
  2127     0078                     ??_LIN_Slave_Initialize:	
  2128                           ; 1 bytes @ 0x8
  2129                           
  2130     0078                     ??_SYSTEM_Initialize:	
  2131                           ; 1 bytes @ 0x8
  2132                           
  2133     0078                     LIN_checkPID@pid:	
  2134                           ; 1 bytes @ 0x8
  2135                           
  2136     0078                     memcpy@d1:	
  2137                           ; 1 bytes @ 0x8
  2138                           
  2139                           
  2140                           ; 1 bytes @ 0x8
  2141     0078                     	ds	1
  2142     0079                     ??_LIN_getPacket:
  2143     0079                     ?_LIN_sendPacket:	
  2144                           ; 1 bytes @ 0x9
  2145                           
  2146     0079                     LIN_sendPacket@pid:	
  2147                           ; 1 bytes @ 0x9
  2148                           
  2149     0079                     LIN_getPacket@data:	
  2150                           ; 1 bytes @ 0x9
  2151                           
  2152                           
  2153                           ; 1 bytes @ 0x9
  2154     0079                     	ds	1
  2155     007A                     LIN_sendPacket@data:
  2156     007A                     LIN_getPacket@cmd:	
  2157                           ; 1 bytes @ 0xA
  2158                           
  2159                           
  2160                           ; 1 bytes @ 0xA
  2161     007A                     	ds	1
  2162     007B                     ??_LIN_sendPacket:
  2163                           
  2164                           ; 1 bytes @ 0xB
  2165     007B                     	ds	1
  2166     007C                     ??_main:
  2167                           
  2168                           	psect	cstackBANK0
  2169     0062                     __pcstackBANK0:	
  2170                           ; 1 bytes @ 0xC
  2171                           
  2172     0062                     ??_processLIN:
  2173     0062                     LIN_sendPacket@length:	
  2174                           ; 1 bytes @ 0x0
  2175                           
  2176                           
  2177                           ; 1 bytes @ 0x0
  2178     0062                     	ds	1
  2179     0063                     LIN_sendPacket@i:
  2180                           
  2181                           ; 1 bytes @ 0x1
  2182     0063                     	ds	1
  2183     0064                     ??_LIN_queuePacket:
  2184     0064                     processLIN@tempRxData:	
  2185                           ; 1 bytes @ 0x2
  2186                           
  2187                           
  2188                           ; 8 bytes @ 0x2
  2189     0064                     	ds	2
  2190     0066                     LIN_queuePacket@cmd:
  2191                           
  2192                           ; 1 bytes @ 0x4
  2193     0066                     	ds	1
  2194     0067                     LIN_queuePacket@i:
  2195                           
  2196                           ; 1 bytes @ 0x5
  2197     0067                     	ds	1
  2198     0068                     LIN_queuePacket@tempSchedule:
  2199                           
  2200                           ; 2 bytes @ 0x6
  2201     0068                     	ds	4
  2202     006C                     processLIN@cmd:
  2203                           
  2204                           ; 1 bytes @ 0xA
  2205     006C                     	ds	1
  2206                           
  2207                           	psect	maintext
  2208     05AD                     __pmaintext:	
  2209 ;;
  2210 ;;Main: autosize = 0, tempsize = 0, incstack = 0, save=0
  2211 ;;
  2212 ;; *************** function _main *****************
  2213 ;; Defined at:
  2214 ;;		line 53 in file "main.c"
  2215 ;; Parameters:    Size  Location     Type
  2216 ;;		None
  2217 ;; Auto vars:     Size  Location     Type
  2218 ;;		None
  2219 ;; Return value:  Size  Location     Type
  2220 ;;                  1    wreg      void 
  2221 ;; Registers used:
  2222 ;;		wreg, fsr0l, fsr0h, fsr1l, fsr1h, status,2, status,0, pclath, cstack
  2223 ;; Tracked objects:
  2224 ;;		On entry : B1F/0
  2225 ;;		On exit  : 0/0
  2226 ;;		Unchanged: 0/0
  2227 ;; Data sizes:     COMMON   BANK0   BANK1   BANK2   BANK3   BANK4   BANK5   BANK6
  2228 ;;      Params:         0       0       0       0       0       0       0       0
  2229 ;;      Locals:         0       0       0       0       0       0       0       0
  2230 ;;      Temps:          0       0       0       0       0       0       0       0
  2231 ;;      Totals:         0       0       0       0       0       0       0       0
  2232 ;;Total ram usage:        0 bytes
  2233 ;; Hardware stack levels required when called: 9
  2234 ;; This function calls:
  2235 ;;		_LIN_handler
  2236 ;;		_SYSTEM_Initialize
  2237 ;; This function is called by:
  2238 ;;		Startup code after reset
  2239 ;; This function uses a non-reentrant model
  2240 ;;
  2241                           
  2242     05AD                     _main:	
  2243                           ;psect for function _main
  2244                           
  2245     05AD                     l2440:	
  2246                           ;incstack = 0
  2247                           ; Regs used in _main: [wreg-fsr1h+status,2+status,0+pclath+cstack]
  2248                           
  2249                           
  2250                           ;main.c: 56:   SYSTEM_Initialize();
  2251     05AD  3185  2542  3185   	fcall	_SYSTEM_Initialize
  2252     05B0                     l2442:
  2253                           
  2254                           ;main.c: 62:   (INTCONbits.GIE = 1);
  2255     05B0  178B               	bsf	11,7	;volatile
  2256     05B1                     l2444:
  2257                           
  2258                           ;main.c: 65:   (INTCONbits.PEIE = 1);
  2259     05B1  170B               	bsf	11,6	;volatile
  2260     05B2                     l2446:
  2261                           
  2262                           ;main.c: 74:   {;main.c: 76:     LIN_handler();
  2263     05B2  3180  2053  3185   	fcall	_LIN_handler
  2264     05B5  2DB2               	goto	l2446
  2265     05B6  3180  2838         	ljmp	start
  2266     05B8                     __end_of_main:
  2267                           
  2268                           	psect	text1
  2269     0542                     __ptext1:	
  2270 ;; *************** function _SYSTEM_Initialize *****************
  2271 ;; Defined at:
  2272 ;;		line 50 in file "mcc_generated_files/mcc.c"
  2273 ;; Parameters:    Size  Location     Type
  2274 ;;		None
  2275 ;; Auto vars:     Size  Location     Type
  2276 ;;		None
  2277 ;; Return value:  Size  Location     Type
  2278 ;;                  1    wreg      void 
  2279 ;; Registers used:
  2280 ;;		wreg, status,2, status,0, pclath, cstack
  2281 ;; Tracked objects:
  2282 ;;		On entry : 0/0
  2283 ;;		On exit  : 0/0
  2284 ;;		Unchanged: 0/0
  2285 ;; Data sizes:     COMMON   BANK0   BANK1   BANK2   BANK3   BANK4   BANK5   BANK6
  2286 ;;      Params:         0       0       0       0       0       0       0       0
  2287 ;;      Locals:         0       0       0       0       0       0       0       0
  2288 ;;      Temps:          0       0       0       0       0       0       0       0
  2289 ;;      Totals:         0       0       0       0       0       0       0       0
  2290 ;;Total ram usage:        0 bytes
  2291 ;; Hardware stack levels used: 1
  2292 ;; Hardware stack levels required when called: 8
  2293 ;; This function calls:
  2294 ;;		_EUSART_Initialize
  2295 ;;		_LIN_Slave_Initialize
  2296 ;;		_OSCILLATOR_Initialize
  2297 ;;		_PIN_MANAGER_Initialize
  2298 ;;		_TMR0_Initialize
  2299 ;;		_WDT_Initialize
  2300 ;; This function is called by:
  2301 ;;		_main
  2302 ;; This function uses a non-reentrant model
  2303 ;;
  2304                           
  2305     0542                     _SYSTEM_Initialize:	
  2306                           ;psect for function _SYSTEM_Initialize
  2307                           
  2308     0542                     l2438:	
  2309                           ;incstack = 0
  2310                           ; Regs used in _SYSTEM_Initialize: [wreg+status,2+status,0+pclath+cstack]
  2311                           
  2312                           
  2313                           ;mcc_generated_files/mcc.c: 53:     PIN_MANAGER_Initialize();
  2314     0542  3184  24B2  3185   	fcall	_PIN_MANAGER_Initialize
  2315                           
  2316                           ;mcc_generated_files/mcc.c: 54:     OSCILLATOR_Initialize();
  2317     0545  3185  25A1  3185   	fcall	_OSCILLATOR_Initialize
  2318                           
  2319                           ;mcc_generated_files/mcc.c: 55:     WDT_Initialize();
  2320     0548  3186  2610  3185   	fcall	_WDT_Initialize
  2321                           
  2322                           ;mcc_generated_files/mcc.c: 56:     TMR0_Initialize();
  2323     054B  3185  252E  3185   	fcall	_TMR0_Initialize
  2324                           
  2325                           ;mcc_generated_files/mcc.c: 57:     EUSART_Initialize();
  2326     054E  3183  232A  3185   	fcall	_EUSART_Initialize
  2327                           
  2328                           ;mcc_generated_files/mcc.c: 58:     LIN_Slave_Initialize();
  2329     0551  3185  2587  3185   	fcall	_LIN_Slave_Initialize
  2330     0554                     l497:
  2331     0554  0008               	return
  2332     0555                     __end_of_SYSTEM_Initialize:
  2333                           
  2334                           	psect	text2
  2335     0610                     __ptext2:	
  2336 ;; *************** function _WDT_Initialize *****************
  2337 ;; Defined at:
  2338 ;;		line 75 in file "mcc_generated_files/mcc.c"
  2339 ;; Parameters:    Size  Location     Type
  2340 ;;		None
  2341 ;; Auto vars:     Size  Location     Type
  2342 ;;		None
  2343 ;; Return value:  Size  Location     Type
  2344 ;;                  1    wreg      void 
  2345 ;; Registers used:
  2346 ;;		wreg
  2347 ;; Tracked objects:
  2348 ;;		On entry : 0/0
  2349 ;;		On exit  : 0/0
  2350 ;;		Unchanged: 0/0
  2351 ;; Data sizes:     COMMON   BANK0   BANK1   BANK2   BANK3   BANK4   BANK5   BANK6
  2352 ;;      Params:         0       0       0       0       0       0       0       0
  2353 ;;      Locals:         0       0       0       0       0       0       0       0
  2354 ;;      Temps:          0       0       0       0       0       0       0       0
  2355 ;;      Totals:         0       0       0       0       0       0       0       0
  2356 ;;Total ram usage:        0 bytes
  2357 ;; Hardware stack levels used: 1
  2358 ;; Hardware stack levels required when called: 4
  2359 ;; This function calls:
  2360 ;;		Nothing
  2361 ;; This function is called by:
  2362 ;;		_SYSTEM_Initialize
  2363 ;; This function uses a non-reentrant model
  2364 ;;
  2365                           
  2366     0610                     _WDT_Initialize:	
  2367                           ;psect for function _WDT_Initialize
  2368                           
  2369     0610                     l1502:	
  2370                           ;incstack = 0
  2371                           ; Regs used in _WDT_Initialize: [wreg]
  2372                           
  2373                           
  2374                           ;mcc_generated_files/mcc.c: 78:     WDTCON = 0x16;
  2375     0610  3016               	movlw	22
  2376     0611  0021               	movlb	1	; select bank1
  2377     0612  0097               	movwf	23	;volatile
  2378     0613                     l506:
  2379     0613  0008               	return
  2380     0614                     __end_of_WDT_Initialize:
  2381                           
  2382                           	psect	text3
  2383     052E                     __ptext3:	
  2384 ;; *************** function _TMR0_Initialize *****************
  2385 ;; Defined at:
  2386 ;;		line 64 in file "mcc_generated_files/tmr0.c"
  2387 ;; Parameters:    Size  Location     Type
  2388 ;;		None
  2389 ;; Auto vars:     Size  Location     Type
  2390 ;;		None
  2391 ;; Return value:  Size  Location     Type
  2392 ;;                  1    wreg      void 
  2393 ;; Registers used:
  2394 ;;		wreg, status,2, status,0, pclath, cstack
  2395 ;; Tracked objects:
  2396 ;;		On entry : 0/0
  2397 ;;		On exit  : 0/0
  2398 ;;		Unchanged: 0/0
  2399 ;; Data sizes:     COMMON   BANK0   BANK1   BANK2   BANK3   BANK4   BANK5   BANK6
  2400 ;;      Params:         0       0       0       0       0       0       0       0
  2401 ;;      Locals:         0       0       0       0       0       0       0       0
  2402 ;;      Temps:          0       0       0       0       0       0       0       0
  2403 ;;      Totals:         0       0       0       0       0       0       0       0
  2404 ;;Total ram usage:        0 bytes
  2405 ;; Hardware stack levels used: 1
  2406 ;; Hardware stack levels required when called: 5
  2407 ;; This function calls:
  2408 ;;		_TMR0_SetInterruptHandler
  2409 ;; This function is called by:
  2410 ;;		_SYSTEM_Initialize
  2411 ;; This function uses a non-reentrant model
  2412 ;;
  2413                           
  2414     052E                     _TMR0_Initialize:	
  2415                           ;psect for function _TMR0_Initialize
  2416                           
  2417     052E                     l2064:	
  2418                           ;incstack = 0
  2419                           ; Regs used in _TMR0_Initialize: [wreg+status,2+status,0+pclath+cstack]
  2420                           
  2421                           
  2422                           ;mcc_generated_files/tmr0.c: 69:     OPTION_REG = (uint8_t)((OPTION_REG & 0xC0) | (0xD4 
      +                          & 0x3F));
  2423     052E  0021               	movlb	1	; select bank1
  2424     052F  0815               	movf	21,w	;volatile
  2425     0530  39C0               	andlw	192
  2426     0531  3814               	iorlw	20
  2427     0532  0095               	movwf	21	;volatile
  2428     0533                     l2066:
  2429                           
  2430                           ;mcc_generated_files/tmr0.c: 72:     TMR0 = 0x06;
  2431     0533  3006               	movlw	6
  2432     0534  0020               	movlb	0	; select bank0
  2433     0535  0095               	movwf	21	;volatile
  2434     0536                     l2068:
  2435                           
  2436                           ;mcc_generated_files/tmr0.c: 75:     timer0ReloadVal= 6;
  2437     0536  3006               	movlw	6
  2438     0537  00C8               	movwf	_timer0ReloadVal	;volatile
  2439     0538                     l2070:
  2440                           
  2441                           ;mcc_generated_files/tmr0.c: 78:     INTCONbits.TMR0IF = 0;
  2442     0538  110B               	bcf	11,2	;volatile
  2443     0539                     l2072:
  2444                           
  2445                           ;mcc_generated_files/tmr0.c: 81:     INTCONbits.TMR0IE = 1;
  2446     0539  168B               	bsf	11,5	;volatile
  2447     053A                     l2074:
  2448                           
  2449                           ;mcc_generated_files/tmr0.c: 84:     TMR0_SetInterruptHandler(TMR0_DefaultInterruptHandl
      +                          er);
  2450     053A  3020               	movlw	low _TMR0_DefaultInterruptHandler
  2451     053B  00F1               	movwf	TMR0_SetInterruptHandler@InterruptHandler
  2452     053C  3006               	movlw	high _TMR0_DefaultInterruptHandler
  2453     053D  00F2               	movwf	TMR0_SetInterruptHandler@InterruptHandler+1
  2454     053E  3185  25CF  3185   	fcall	_TMR0_SetInterruptHandler
  2455     0541                     l420:
  2456     0541  0008               	return
  2457     0542                     __end_of_TMR0_Initialize:
  2458                           
  2459                           	psect	text4
  2460     04B2                     __ptext4:	
  2461 ;; *************** function _PIN_MANAGER_Initialize *****************
  2462 ;; Defined at:
  2463 ;;		line 55 in file "mcc_generated_files/pin_manager.c"
  2464 ;; Parameters:    Size  Location     Type
  2465 ;;		None
  2466 ;; Auto vars:     Size  Location     Type
  2467 ;;		None
  2468 ;; Return value:  Size  Location     Type
  2469 ;;                  1    wreg      void 
  2470 ;; Registers used:
  2471 ;;		wreg, status,2
  2472 ;; Tracked objects:
  2473 ;;		On entry : 0/0
  2474 ;;		On exit  : 0/0
  2475 ;;		Unchanged: 0/0
  2476 ;; Data sizes:     COMMON   BANK0   BANK1   BANK2   BANK3   BANK4   BANK5   BANK6
  2477 ;;      Params:         0       0       0       0       0       0       0       0
  2478 ;;      Locals:         0       0       0       0       0       0       0       0
  2479 ;;      Temps:          0       0       0       0       0       0       0       0
  2480 ;;      Totals:         0       0       0       0       0       0       0       0
  2481 ;;Total ram usage:        0 bytes
  2482 ;; Hardware stack levels used: 1
  2483 ;; Hardware stack levels required when called: 4
  2484 ;; This function calls:
  2485 ;;		Nothing
  2486 ;; This function is called by:
  2487 ;;		_SYSTEM_Initialize
  2488 ;; This function uses a non-reentrant model
  2489 ;;
  2490                           
  2491     04B2                     _PIN_MANAGER_Initialize:	
  2492                           ;psect for function _PIN_MANAGER_Initialize
  2493                           
  2494     04B2                     l1428:	
  2495                           ;incstack = 0
  2496                           ; Regs used in _PIN_MANAGER_Initialize: [wreg+status,2]
  2497                           
  2498                           
  2499                           ;mcc_generated_files/pin_manager.c: 60:     LATE = 0x00;
  2500     04B2  0022               	movlb	2	; select bank2
  2501     04B3  0190               	clrf	16	;volatile
  2502                           
  2503                           ;mcc_generated_files/pin_manager.c: 61:     LATA = 0x00;
  2504     04B4  018C               	clrf	12	;volatile
  2505                           
  2506                           ;mcc_generated_files/pin_manager.c: 62:     LATB = 0x00;
  2507     04B5  018D               	clrf	13	;volatile
  2508                           
  2509                           ;mcc_generated_files/pin_manager.c: 63:     LATC = 0x00;
  2510     04B6  018E               	clrf	14	;volatile
  2511     04B7                     l1430:
  2512                           
  2513                           ;mcc_generated_files/pin_manager.c: 68:     TRISE = 0x08;
  2514     04B7  3008               	movlw	8
  2515     04B8  0021               	movlb	1	; select bank1
  2516     04B9  0090               	movwf	16	;volatile
  2517     04BA                     l1432:
  2518                           
  2519                           ;mcc_generated_files/pin_manager.c: 69:     TRISA = 0xFF;
  2520     04BA  30FF               	movlw	255
  2521     04BB  008C               	movwf	12	;volatile
  2522     04BC                     l1434:
  2523                           
  2524                           ;mcc_generated_files/pin_manager.c: 70:     TRISB = 0xC0;
  2525     04BC  30C0               	movlw	192
  2526     04BD  008D               	movwf	13	;volatile
  2527     04BE                     l1436:
  2528                           
  2529                           ;mcc_generated_files/pin_manager.c: 71:     TRISC = 0xBF;
  2530     04BE  30BF               	movlw	191
  2531     04BF  008E               	movwf	14	;volatile
  2532                           
  2533                           ;mcc_generated_files/pin_manager.c: 76:     ANSELB = 0x00;
  2534     04C0  0023               	movlb	3	; select bank3
  2535     04C1  018D               	clrf	13	;volatile
  2536     04C2                     l1438:
  2537                           
  2538                           ;mcc_generated_files/pin_manager.c: 77:     ANSELA = 0x3F;
  2539     04C2  303F               	movlw	63
  2540     04C3  008C               	movwf	12	;volatile
  2541     04C4                     l1440:
  2542                           
  2543                           ;mcc_generated_files/pin_manager.c: 82:     WPUE = 0x00;
  2544     04C4  0024               	movlb	4	; select bank4
  2545     04C5  0190               	clrf	16	;volatile
  2546     04C6                     l1442:
  2547                           
  2548                           ;mcc_generated_files/pin_manager.c: 83:     WPUB = 0x00;
  2549     04C6  018D               	clrf	13	;volatile
  2550     04C7                     l1444:
  2551                           
  2552                           ;mcc_generated_files/pin_manager.c: 84:     OPTION_REGbits.nWPUEN = 1;
  2553     04C7  0021               	movlb	1	; select bank1
  2554     04C8  1795               	bsf	21,7	;volatile
  2555     04C9                     l1446:
  2556                           
  2557                           ;mcc_generated_files/pin_manager.c: 90:     APFCON = 0x00;
  2558     04C9  0022               	movlb	2	; select bank2
  2559     04CA  019D               	clrf	29	;volatile
  2560     04CB                     l256:
  2561     04CB  0008               	return
  2562     04CC                     __end_of_PIN_MANAGER_Initialize:
  2563                           
  2564                           	psect	text5
  2565     05A1                     __ptext5:	
  2566 ;; *************** function _OSCILLATOR_Initialize *****************
  2567 ;; Defined at:
  2568 ;;		line 61 in file "mcc_generated_files/mcc.c"
  2569 ;; Parameters:    Size  Location     Type
  2570 ;;		None
  2571 ;; Auto vars:     Size  Location     Type
  2572 ;;		None
  2573 ;; Return value:  Size  Location     Type
  2574 ;;                  1    wreg      void 
  2575 ;; Registers used:
  2576 ;;		wreg, status,2
  2577 ;; Tracked objects:
  2578 ;;		On entry : 0/0
  2579 ;;		On exit  : 0/0
  2580 ;;		Unchanged: 0/0
  2581 ;; Data sizes:     COMMON   BANK0   BANK1   BANK2   BANK3   BANK4   BANK5   BANK6
  2582 ;;      Params:         0       0       0       0       0       0       0       0
  2583 ;;      Locals:         0       0       0       0       0       0       0       0
  2584 ;;      Temps:          0       0       0       0       0       0       0       0
  2585 ;;      Totals:         0       0       0       0       0       0       0       0
  2586 ;;Total ram usage:        0 bytes
  2587 ;; Hardware stack levels used: 1
  2588 ;; Hardware stack levels required when called: 4
  2589 ;; This function calls:
  2590 ;;		Nothing
  2591 ;; This function is called by:
  2592 ;;		_SYSTEM_Initialize
  2593 ;; This function uses a non-reentrant model
  2594 ;;
  2595                           
  2596     05A1                     _OSCILLATOR_Initialize:	
  2597                           ;psect for function _OSCILLATOR_Initialize
  2598                           
  2599     05A1                     l1496:	
  2600                           ;incstack = 0
  2601                           ; Regs used in _OSCILLATOR_Initialize: [wreg+status,2]
  2602                           
  2603                           
  2604                           ;mcc_generated_files/mcc.c: 64:     OSCCON = 0x70;
  2605     05A1  3070               	movlw	112
  2606     05A2  0021               	movlb	1	; select bank1
  2607     05A3  0099               	movwf	25	;volatile
  2608     05A4                     l1498:
  2609                           
  2610                           ;mcc_generated_files/mcc.c: 66:     OSCTUNE = 0x00;
  2611     05A4  0198               	clrf	24	;volatile
  2612     05A5                     l1500:
  2613                           
  2614                           ;mcc_generated_files/mcc.c: 68:     BORCON = 0x00;
  2615     05A5  0022               	movlb	2	; select bank2
  2616     05A6  0196               	clrf	22	;volatile
  2617     05A7                     l500:	
  2618                           ;mcc_generated_files/mcc.c: 71:     {;mcc_generated_files/mcc.c: 72:     }
  2619                           
  2620                           
  2621                           ;mcc_generated_files/mcc.c: 70:     while(PLLR == 0)
  2622     05A7  0021               	movlb	1	; select bank1
  2623     05A8  1F1A               	btfss	26,6	;volatile
  2624     05A9  2DAB               	goto	u561
  2625     05AA  2DAC               	goto	u560
  2626     05AB                     u561:
  2627     05AB  2DA7               	goto	l500
  2628     05AC                     u560:
  2629     05AC                     l503:
  2630     05AC  0008               	return
  2631     05AD                     __end_of_OSCILLATOR_Initialize:
  2632                           
  2633                           	psect	text6
  2634     0587                     __ptext6:	
  2635 ;; *************** function _LIN_Slave_Initialize *****************
  2636 ;; Defined at:
  2637 ;;		line 53 in file "mcc_generated_files/LINDrivers/lin_app.c"
  2638 ;; Parameters:    Size  Location     Type
  2639 ;;		None
  2640 ;; Auto vars:     Size  Location     Type
  2641 ;;		None
  2642 ;; Return value:  Size  Location     Type
  2643 ;;                  1    wreg      void 
  2644 ;; Registers used:
  2645 ;;		wreg, status,2, status,0, pclath, cstack
  2646 ;; Tracked objects:
  2647 ;;		On entry : 0/0
  2648 ;;		On exit  : 0/0
  2649 ;;		Unchanged: 0/0
  2650 ;; Data sizes:     COMMON   BANK0   BANK1   BANK2   BANK3   BANK4   BANK5   BANK6
  2651 ;;      Params:         0       0       0       0       0       0       0       0
  2652 ;;      Locals:         0       0       0       0       0       0       0       0
  2653 ;;      Temps:          0       0       0       0       0       0       0       0
  2654 ;;      Totals:         0       0       0       0       0       0       0       0
  2655 ;;Total ram usage:        0 bytes
  2656 ;; Hardware stack levels used: 1
  2657 ;; Hardware stack levels required when called: 7
  2658 ;; This function calls:
  2659 ;;		_LIN_init
  2660 ;; This function is called by:
  2661 ;;		_SYSTEM_Initialize
  2662 ;; This function uses a non-reentrant model
  2663 ;;
  2664                           
  2665     0587                     _LIN_Slave_Initialize:	
  2666                           ;psect for function _LIN_Slave_Initialize
  2667                           
  2668     0587                     l2322:	
  2669                           ;incstack = 0
  2670                           ; Regs used in _LIN_Slave_Initialize: [wreg+status,2+status,0+pclath+cstack]
  2671                           
  2672                           
  2673                           ;mcc_generated_files/LINDrivers/lin_app.c: 55:     LIN_init((sizeof(scheduleTable)/sizeo
      +                          f(lin_rx_cmd_t)), scheduleTable, processLIN);
  2674     0587  300C               	movlw	low (_scheduleTable| (0+32768))
  2675     0588  00F3               	movwf	LIN_init@command
  2676     0589  3086               	movlw	high (_scheduleTable| (0+32768))
  2677     058A  00F4               	movwf	LIN_init@command+1
  2678     058B  30D9               	movlw	low _processLIN
  2679     058C  00F5               	movwf	LIN_init@processData
  2680     058D  3002               	movlw	high _processLIN
  2681     058E  00F6               	movwf	LIN_init@processData+1
  2682     058F  3001               	movlw	1
  2683     0590  3185  2518  3185   	fcall	_LIN_init
  2684     0593                     l15:
  2685     0593  0008               	return
  2686     0594                     __end_of_LIN_Slave_Initialize:
  2687                           
  2688                           	psect	text7
  2689     0518                     __ptext7:	
  2690 ;; *************** function _LIN_init *****************
  2691 ;; Defined at:
  2692 ;;		line 57 in file "mcc_generated_files/LINDrivers/lin_slave.c"
  2693 ;; Parameters:    Size  Location     Type
  2694 ;;  tableLength     1    wreg     unsigned char 
  2695 ;;  command         2    3[COMMON] const PTR const struct .
  2696 ;;		 -> scheduleTable(4), 
  2697 ;;  processData     2    5[COMMON] PTR FTN()void 
  2698 ;;		 -> processLIN(1), 
  2699 ;; Auto vars:     Size  Location     Type
  2700 ;;  tableLength     1    7[COMMON] unsigned char 
  2701 ;; Return value:  Size  Location     Type
  2702 ;;                  1    wreg      void 
  2703 ;; Registers used:
  2704 ;;		wreg, status,2, status,0, pclath, cstack
  2705 ;; Tracked objects:
  2706 ;;		On entry : 0/0
  2707 ;;		On exit  : 0/0
  2708 ;;		Unchanged: 0/0
  2709 ;; Data sizes:     COMMON   BANK0   BANK1   BANK2   BANK3   BANK4   BANK5   BANK6
  2710 ;;      Params:         4       0       0       0       0       0       0       0
  2711 ;;      Locals:         1       0       0       0       0       0       0       0
  2712 ;;      Temps:          0       0       0       0       0       0       0       0
  2713 ;;      Totals:         5       0       0       0       0       0       0       0
  2714 ;;Total ram usage:        5 bytes
  2715 ;; Hardware stack levels used: 1
  2716 ;; Hardware stack levels required when called: 6
  2717 ;; This function calls:
  2718 ;;		_LIN_enableRx
  2719 ;;		_LIN_setTimerHandler
  2720 ;;		_LIN_stopTimer
  2721 ;; This function is called by:
  2722 ;;		_LIN_Slave_Initialize
  2723 ;; This function uses a non-reentrant model
  2724 ;;
  2725                           
  2726     0518                     _LIN_init:	
  2727                           ;psect for function _LIN_init
  2728                           
  2729                           
  2730                           ;incstack = 0
  2731                           ; Regs used in _LIN_init: [wreg+status,2+status,0+pclath+cstack]
  2732                           ;LIN_init@tableLength stored from wreg
  2733     0518  00F7               	movwf	LIN_init@tableLength
  2734     0519                     l1804:
  2735                           
  2736                           ;mcc_generated_files/LINDrivers/lin_slave.c: 58:     LIN_rxCommand = command;
  2737     0519  0874               	movf	LIN_init@command+1,w
  2738     051A  0020               	movlb	0	; select bank0
  2739     051B  00C5               	movwf	_LIN_rxCommand+1
  2740     051C  0873               	movf	LIN_init@command,w
  2741     051D  00C4               	movwf	_LIN_rxCommand
  2742                           
  2743                           ;mcc_generated_files/LINDrivers/lin_slave.c: 59:     LIN_rxCommandLength = tableLength;
  2744     051E  0877               	movf	LIN_init@tableLength,w
  2745     051F  00D3               	movwf	_LIN_rxCommandLength
  2746                           
  2747                           ;mcc_generated_files/LINDrivers/lin_slave.c: 60:     LIN_processData = processData;
  2748     0520  0876               	movf	LIN_init@processData+1,w
  2749     0521  00C7               	movwf	_LIN_processData+1
  2750     0522  0875               	movf	LIN_init@processData,w
  2751     0523  00C6               	movwf	_LIN_processData
  2752     0524                     l1806:
  2753                           
  2754                           ;mcc_generated_files/LINDrivers/lin_slave.c: 61:     LIN_stopTimer();
  2755     0524  3185  25F3  3185   	fcall	_LIN_stopTimer
  2756     0527                     l1808:
  2757                           
  2758                           ;mcc_generated_files/LINDrivers/lin_slave.c: 62:     LIN_enableRx();
  2759     0527  3185  25FD  3185   	fcall	_LIN_enableRx
  2760     052A                     l1810:
  2761                           
  2762                           ;mcc_generated_files/LINDrivers/lin_slave.c: 63:     LIN_setTimerHandler();
  2763     052A  3185  25C1  3185   	fcall	_LIN_setTimerHandler
  2764     052D                     l117:
  2765     052D  0008               	return
  2766     052E                     __end_of_LIN_init:
  2767                           
  2768                           	psect	text8
  2769     05C1                     __ptext8:	
  2770 ;; *************** function _LIN_setTimerHandler *****************
  2771 ;; Defined at:
  2772 ;;		line 308 in file "mcc_generated_files/LINDrivers/lin_slave.c"
  2773 ;; Parameters:    Size  Location     Type
  2774 ;;		None
  2775 ;; Auto vars:     Size  Location     Type
  2776 ;;		None
  2777 ;; Return value:  Size  Location     Type
  2778 ;;                  1    wreg      void 
  2779 ;; Registers used:
  2780 ;;		wreg, status,2, status,0, pclath, cstack
  2781 ;; Tracked objects:
  2782 ;;		On entry : 0/0
  2783 ;;		On exit  : 0/0
  2784 ;;		Unchanged: 0/0
  2785 ;; Data sizes:     COMMON   BANK0   BANK1   BANK2   BANK3   BANK4   BANK5   BANK6
  2786 ;;      Params:         0       0       0       0       0       0       0       0
  2787 ;;      Locals:         0       0       0       0       0       0       0       0
  2788 ;;      Temps:          0       0       0       0       0       0       0       0
  2789 ;;      Totals:         0       0       0       0       0       0       0       0
  2790 ;;Total ram usage:        0 bytes
  2791 ;; Hardware stack levels used: 1
  2792 ;; Hardware stack levels required when called: 5
  2793 ;; This function calls:
  2794 ;;		_TMR0_SetInterruptHandler
  2795 ;; This function is called by:
  2796 ;;		_LIN_init
  2797 ;; This function uses a non-reentrant model
  2798 ;;
  2799                           
  2800     05C1                     _LIN_setTimerHandler:	
  2801                           ;psect for function _LIN_setTimerHandler
  2802                           
  2803     05C1                     l1748:	
  2804                           ;incstack = 0
  2805                           ; Regs used in _LIN_setTimerHandler: [wreg+status,2+status,0+pclath+cstack]
  2806                           
  2807                           
  2808                           ;mcc_generated_files/LINDrivers/lin_slave.c: 309:     TMR0_SetInterruptHandler(LIN_timer
      +                          Handler);
  2809     05C1  3078               	movlw	low _LIN_timerHandler
  2810     05C2  00F1               	movwf	TMR0_SetInterruptHandler@InterruptHandler
  2811     05C3  3005               	movlw	high _LIN_timerHandler
  2812     05C4  00F2               	movwf	TMR0_SetInterruptHandler@InterruptHandler+1
  2813     05C5  3185  25CF  3185   	fcall	_TMR0_SetInterruptHandler
  2814     05C8                     l212:
  2815     05C8  0008               	return
  2816     05C9                     __end_of_LIN_setTimerHandler:
  2817                           
  2818                           	psect	text9
  2819     05CF                     __ptext9:	
  2820 ;; *************** function _TMR0_SetInterruptHandler *****************
  2821 ;; Defined at:
  2822 ;;		line 125 in file "mcc_generated_files/tmr0.c"
  2823 ;; Parameters:    Size  Location     Type
  2824 ;;  InterruptHan    2    1[COMMON] PTR FTN()void 
  2825 ;;		 -> TMR0_DefaultInterruptHandler(1), LIN_timerHandler(1), 
  2826 ;; Auto vars:     Size  Location     Type
  2827 ;;		None
  2828 ;; Return value:  Size  Location     Type
  2829 ;;                  1    wreg      void 
  2830 ;; Registers used:
  2831 ;;		wreg
  2832 ;; Tracked objects:
  2833 ;;		On entry : 0/0
  2834 ;;		On exit  : 0/0
  2835 ;;		Unchanged: 0/0
  2836 ;; Data sizes:     COMMON   BANK0   BANK1   BANK2   BANK3   BANK4   BANK5   BANK6
  2837 ;;      Params:         2       0       0       0       0       0       0       0
  2838 ;;      Locals:         0       0       0       0       0       0       0       0
  2839 ;;      Temps:          0       0       0       0       0       0       0       0
  2840 ;;      Totals:         2       0       0       0       0       0       0       0
  2841 ;;Total ram usage:        2 bytes
  2842 ;; Hardware stack levels used: 1
  2843 ;; Hardware stack levels required when called: 4
  2844 ;; This function calls:
  2845 ;;		Nothing
  2846 ;; This function is called by:
  2847 ;;		_LIN_setTimerHandler
  2848 ;;		_TMR0_Initialize
  2849 ;; This function uses a non-reentrant model
  2850 ;;
  2851                           
  2852     05CF                     _TMR0_SetInterruptHandler:	
  2853                           ;psect for function _TMR0_SetInterruptHandler
  2854                           
  2855     05CF                     l1740:	
  2856                           ;incstack = 0
  2857                           ; Regs used in _TMR0_SetInterruptHandler: [wreg]
  2858                           
  2859                           
  2860                           ;mcc_generated_files/tmr0.c: 126:     TMR0_InterruptHandler = InterruptHandler;
  2861     05CF  0872               	movf	TMR0_SetInterruptHandler@InterruptHandler+1,w
  2862     05D0  0020               	movlb	0	; select bank0
  2863     05D1  00B9               	movwf	_TMR0_InterruptHandler+1
  2864     05D2  0871               	movf	TMR0_SetInterruptHandler@InterruptHandler,w
  2865     05D3  00B8               	movwf	_TMR0_InterruptHandler
  2866     05D4                     l436:
  2867     05D4  0008               	return
  2868     05D5                     __end_of_TMR0_SetInterruptHandler:
  2869                           
  2870                           	psect	text10
  2871     032A                     __ptext10:	
  2872 ;; *************** function _EUSART_Initialize *****************
  2873 ;; Defined at:
  2874 ;;		line 88 in file "mcc_generated_files/eusart.c"
  2875 ;; Parameters:    Size  Location     Type
  2876 ;;		None
  2877 ;; Auto vars:     Size  Location     Type
  2878 ;;		None
  2879 ;; Return value:  Size  Location     Type
  2880 ;;                  1    wreg      void 
  2881 ;; Registers used:
  2882 ;;		wreg, status,2, status,0, pclath, cstack
  2883 ;; Tracked objects:
  2884 ;;		On entry : 0/0
  2885 ;;		On exit  : 0/0
  2886 ;;		Unchanged: 0/0
  2887 ;; Data sizes:     COMMON   BANK0   BANK1   BANK2   BANK3   BANK4   BANK5   BANK6
  2888 ;;      Params:         0       0       0       0       0       0       0       0
  2889 ;;      Locals:         0       0       0       0       0       0       0       0
  2890 ;;      Temps:          0       0       0       0       0       0       0       0
  2891 ;;      Totals:         0       0       0       0       0       0       0       0
  2892 ;;Total ram usage:        0 bytes
  2893 ;; Hardware stack levels used: 1
  2894 ;; Hardware stack levels required when called: 5
  2895 ;; This function calls:
  2896 ;;		_EUSART_SetErrorHandler
  2897 ;;		_EUSART_SetFramingErrorHandler
  2898 ;;		_EUSART_SetOverrunErrorHandler
  2899 ;;		_EUSART_SetRxInterruptHandler
  2900 ;;		_EUSART_SetTxInterruptHandler
  2901 ;; This function is called by:
  2902 ;;		_SYSTEM_Initialize
  2903 ;; This function uses a non-reentrant model
  2904 ;;
  2905                           
  2906     032A                     _EUSART_Initialize:	
  2907                           ;psect for function _EUSART_Initialize
  2908                           
  2909     032A                     l2028:	
  2910                           ;incstack = 0
  2911                           ; Regs used in _EUSART_Initialize: [wreg+status,2+status,0+pclath+cstack]
  2912                           
  2913                           
  2914                           ;mcc_generated_files/eusart.c: 91:     PIE1bits.RCIE = 0;
  2915     032A  0021               	movlb	1	; select bank1
  2916     032B  1291               	bcf	17,5	;volatile
  2917     032C                     l2030:
  2918                           
  2919                           ;mcc_generated_files/eusart.c: 92:     EUSART_SetRxInterruptHandler(EUSART_Receive_ISR);
  2920     032C  3068               	movlw	low _EUSART_Receive_ISR
  2921     032D  00F1               	movwf	EUSART_SetRxInterruptHandler@interruptHandler
  2922     032E  3003               	movlw	high _EUSART_Receive_ISR
  2923     032F  00F2               	movwf	EUSART_SetRxInterruptHandler@interruptHandler+1
  2924     0330  3185  25DB  3183   	fcall	_EUSART_SetRxInterruptHandler
  2925     0333                     l2032:
  2926                           
  2927                           ;mcc_generated_files/eusart.c: 93:     PIE1bits.TXIE = 0;
  2928     0333  0021               	movlb	1	; select bank1
  2929     0334  1211               	bcf	17,4	;volatile
  2930                           
  2931                           ;mcc_generated_files/eusart.c: 94:     EUSART_SetTxInterruptHandler(EUSART_Transmit_ISR)
      +                          ;
  2932     0335  3090               	movlw	low _EUSART_Transmit_ISR
  2933     0336  00F1               	movwf	EUSART_SetTxInterruptHandler@interruptHandler
  2934     0337  3004               	movlw	high _EUSART_Transmit_ISR
  2935     0338  00F2               	movwf	EUSART_SetTxInterruptHandler@interruptHandler+1
  2936     0339  3185  25D5  3183   	fcall	_EUSART_SetTxInterruptHandler
  2937     033C                     l2034:
  2938                           
  2939                           ;mcc_generated_files/eusart.c: 98:     BAUDCON = 0x18;
  2940     033C  3018               	movlw	24
  2941     033D  0023               	movlb	3	; select bank3
  2942     033E  009F               	movwf	31	;volatile
  2943     033F                     l2036:
  2944                           
  2945                           ;mcc_generated_files/eusart.c: 101:     RCSTA = 0x90;
  2946     033F  3090               	movlw	144
  2947     0340  009D               	movwf	29	;volatile
  2948     0341                     l2038:
  2949                           
  2950                           ;mcc_generated_files/eusart.c: 104:     TXSTA = 0x24;
  2951     0341  3024               	movlw	36
  2952     0342  009E               	movwf	30	;volatile
  2953     0343                     l2040:
  2954                           
  2955                           ;mcc_generated_files/eusart.c: 107:     SPBRGL = 0xFF;
  2956     0343  30FF               	movlw	255
  2957     0344  009B               	movwf	27	;volatile
  2958     0345                     l2042:
  2959                           
  2960                           ;mcc_generated_files/eusart.c: 110:     SPBRGH = 0x02;
  2961     0345  3002               	movlw	2
  2962     0346  009C               	movwf	28	;volatile
  2963     0347                     l2044:
  2964                           
  2965                           ;mcc_generated_files/eusart.c: 113:     EUSART_SetFramingErrorHandler(EUSART_DefaultFram
      +                          ingErrorHandler);
  2966     0347  3021               	movlw	low _EUSART_DefaultFramingErrorHandler
  2967     0348  00F1               	movwf	EUSART_SetFramingErrorHandler@interruptHandler
  2968     0349  3006               	movlw	high _EUSART_DefaultFramingErrorHandler
  2969     034A  00F2               	movwf	EUSART_SetFramingErrorHandler@interruptHandler+1
  2970     034B  3185  25E7  3183   	fcall	_EUSART_SetFramingErrorHandler
  2971     034E                     l2046:
  2972                           
  2973                           ;mcc_generated_files/eusart.c: 114:     EUSART_SetOverrunErrorHandler(EUSART_DefaultOver
      +                          runErrorHandler);
  2974     034E  3014               	movlw	low _EUSART_DefaultOverrunErrorHandler
  2975     034F  00F1               	movwf	EUSART_SetOverrunErrorHandler@interruptHandler
  2976     0350  3006               	movlw	high _EUSART_DefaultOverrunErrorHandler
  2977     0351  00F2               	movwf	EUSART_SetOverrunErrorHandler@interruptHandler+1
  2978     0352  3185  25E1  3183   	fcall	_EUSART_SetOverrunErrorHandler
  2979     0355                     l2048:
  2980                           
  2981                           ;mcc_generated_files/eusart.c: 115:     EUSART_SetErrorHandler(EUSART_DefaultErrorHandle
      +                          r);
  2982     0355  3018               	movlw	low _EUSART_DefaultErrorHandler
  2983     0356  00F1               	movwf	EUSART_SetErrorHandler@interruptHandler
  2984     0357  3006               	movlw	high _EUSART_DefaultErrorHandler
  2985     0358  00F2               	movwf	EUSART_SetErrorHandler@interruptHandler+1
  2986     0359  3185  25ED  3183   	fcall	_EUSART_SetErrorHandler
  2987     035C                     l2050:
  2988                           
  2989                           ;mcc_generated_files/eusart.c: 117:     eusartRxLastError.status = 0;
  2990     035C  0020               	movlb	0	; select bank0
  2991     035D  01C9               	clrf	_eusartRxLastError	;volatile
  2992     035E                     l2052:
  2993                           
  2994                           ;mcc_generated_files/eusart.c: 120:     eusartTxHead = 0;
  2995     035E  01CE               	clrf	_eusartTxHead	;volatile
  2996     035F                     l2054:
  2997                           
  2998                           ;mcc_generated_files/eusart.c: 121:     eusartTxTail = 0;
  2999     035F  01CD               	clrf	_eusartTxTail	;volatile
  3000     0360                     l2056:
  3001                           
  3002                           ;mcc_generated_files/eusart.c: 122:     eusartTxBufferRemaining = sizeof(eusartTxBuffer)
      +                          ;
  3003     0360  3008               	movlw	8
  3004     0361  00CC               	movwf	_eusartTxBufferRemaining	;volatile
  3005                           
  3006                           ;mcc_generated_files/eusart.c: 124:     eusartRxHead = 0;
  3007     0362  01FC               	clrf	_eusartRxHead	;volatile
  3008                           
  3009                           ;mcc_generated_files/eusart.c: 125:     eusartRxTail = 0;
  3010     0363  01CB               	clrf	_eusartRxTail	;volatile
  3011                           
  3012                           ;mcc_generated_files/eusart.c: 126:     eusartRxCount = 0;
  3013     0364  01CA               	clrf	_eusartRxCount	;volatile
  3014     0365                     l2058:
  3015                           
  3016                           ;mcc_generated_files/eusart.c: 129:     PIE1bits.RCIE = 1;
  3017     0365  0021               	movlb	1	; select bank1
  3018     0366  1691               	bsf	17,5	;volatile
  3019     0367                     l334:
  3020     0367  0008               	return
  3021     0368                     __end_of_EUSART_Initialize:
  3022                           
  3023                           	psect	text11
  3024     05D5                     __ptext11:	
  3025 ;; *************** function _EUSART_SetTxInterruptHandler *****************
  3026 ;; Defined at:
  3027 ;;		line 276 in file "mcc_generated_files/eusart.c"
  3028 ;; Parameters:    Size  Location     Type
  3029 ;;  interruptHan    2    1[COMMON] PTR FTN()void 
  3030 ;;		 -> EUSART_Transmit_ISR(1), 
  3031 ;; Auto vars:     Size  Location     Type
  3032 ;;		None
  3033 ;; Return value:  Size  Location     Type
  3034 ;;                  1    wreg      void 
  3035 ;; Registers used:
  3036 ;;		wreg
  3037 ;; Tracked objects:
  3038 ;;		On entry : 0/0
  3039 ;;		On exit  : 0/0
  3040 ;;		Unchanged: 0/0
  3041 ;; Data sizes:     COMMON   BANK0   BANK1   BANK2   BANK3   BANK4   BANK5   BANK6
  3042 ;;      Params:         2       0       0       0       0       0       0       0
  3043 ;;      Locals:         0       0       0       0       0       0       0       0
  3044 ;;      Temps:          0       0       0       0       0       0       0       0
  3045 ;;      Totals:         2       0       0       0       0       0       0       0
  3046 ;;Total ram usage:        2 bytes
  3047 ;; Hardware stack levels used: 1
  3048 ;; Hardware stack levels required when called: 4
  3049 ;; This function calls:
  3050 ;;		Nothing
  3051 ;; This function is called by:
  3052 ;;		_EUSART_Initialize
  3053 ;; This function uses a non-reentrant model
  3054 ;;
  3055                           
  3056     05D5                     _EUSART_SetTxInterruptHandler:	
  3057                           ;psect for function _EUSART_SetTxInterruptHandler
  3058                           
  3059     05D5                     l1920:	
  3060                           ;incstack = 0
  3061                           ; Regs used in _EUSART_SetTxInterruptHandler: [wreg]
  3062                           
  3063                           
  3064                           ;mcc_generated_files/eusart.c: 277:     EUSART_TxDefaultInterruptHandler = interruptHand
      +                          ler;
  3065     05D5  0872               	movf	EUSART_SetTxInterruptHandler@interruptHandler+1,w
  3066     05D6  0020               	movlb	0	; select bank0
  3067     05D7  00C3               	movwf	_EUSART_TxDefaultInterruptHandler+1
  3068     05D8  0871               	movf	EUSART_SetTxInterruptHandler@interruptHandler,w
  3069     05D9  00C2               	movwf	_EUSART_TxDefaultInterruptHandler
  3070     05DA                     l400:
  3071     05DA  0008               	return
  3072     05DB                     __end_of_EUSART_SetTxInterruptHandler:
  3073                           
  3074                           	psect	text12
  3075     05DB                     __ptext12:	
  3076 ;; *************** function _EUSART_SetRxInterruptHandler *****************
  3077 ;; Defined at:
  3078 ;;		line 280 in file "mcc_generated_files/eusart.c"
  3079 ;; Parameters:    Size  Location     Type
  3080 ;;  interruptHan    2    1[COMMON] PTR FTN()void 
  3081 ;;		 -> EUSART_Receive_ISR(1), 
  3082 ;; Auto vars:     Size  Location     Type
  3083 ;;		None
  3084 ;; Return value:  Size  Location     Type
  3085 ;;                  1    wreg      void 
  3086 ;; Registers used:
  3087 ;;		wreg
  3088 ;; Tracked objects:
  3089 ;;		On entry : 0/0
  3090 ;;		On exit  : 0/0
  3091 ;;		Unchanged: 0/0
  3092 ;; Data sizes:     COMMON   BANK0   BANK1   BANK2   BANK3   BANK4   BANK5   BANK6
  3093 ;;      Params:         2       0       0       0       0       0       0       0
  3094 ;;      Locals:         0       0       0       0       0       0       0       0
  3095 ;;      Temps:          0       0       0       0       0       0       0       0
  3096 ;;      Totals:         2       0       0       0       0       0       0       0
  3097 ;;Total ram usage:        2 bytes
  3098 ;; Hardware stack levels used: 1
  3099 ;; Hardware stack levels required when called: 4
  3100 ;; This function calls:
  3101 ;;		Nothing
  3102 ;; This function is called by:
  3103 ;;		_EUSART_Initialize
  3104 ;; This function uses a non-reentrant model
  3105 ;;
  3106                           
  3107     05DB                     _EUSART_SetRxInterruptHandler:	
  3108                           ;psect for function _EUSART_SetRxInterruptHandler
  3109                           
  3110     05DB                     l1918:	
  3111                           ;incstack = 0
  3112                           ; Regs used in _EUSART_SetRxInterruptHandler: [wreg]
  3113                           
  3114                           
  3115                           ;mcc_generated_files/eusart.c: 281:     EUSART_RxDefaultInterruptHandler = interruptHand
      +                          ler;
  3116     05DB  0872               	movf	EUSART_SetRxInterruptHandler@interruptHandler+1,w
  3117     05DC  0020               	movlb	0	; select bank0
  3118     05DD  00C1               	movwf	_EUSART_RxDefaultInterruptHandler+1
  3119     05DE  0871               	movf	EUSART_SetRxInterruptHandler@interruptHandler,w
  3120     05DF  00C0               	movwf	_EUSART_RxDefaultInterruptHandler
  3121     05E0                     l403:
  3122     05E0  0008               	return
  3123     05E1                     __end_of_EUSART_SetRxInterruptHandler:
  3124                           
  3125                           	psect	text13
  3126     05E1                     __ptext13:	
  3127 ;; *************** function _EUSART_SetOverrunErrorHandler *****************
  3128 ;; Defined at:
  3129 ;;		line 268 in file "mcc_generated_files/eusart.c"
  3130 ;; Parameters:    Size  Location     Type
  3131 ;;  interruptHan    2    1[COMMON] PTR FTN()void 
  3132 ;;		 -> EUSART_DefaultOverrunErrorHandler(1), 
  3133 ;; Auto vars:     Size  Location     Type
  3134 ;;		None
  3135 ;; Return value:  Size  Location     Type
  3136 ;;                  1    wreg      void 
  3137 ;; Registers used:
  3138 ;;		wreg
  3139 ;; Tracked objects:
  3140 ;;		On entry : 0/0
  3141 ;;		On exit  : 0/0
  3142 ;;		Unchanged: 0/0
  3143 ;; Data sizes:     COMMON   BANK0   BANK1   BANK2   BANK3   BANK4   BANK5   BANK6
  3144 ;;      Params:         2       0       0       0       0       0       0       0
  3145 ;;      Locals:         0       0       0       0       0       0       0       0
  3146 ;;      Temps:          0       0       0       0       0       0       0       0
  3147 ;;      Totals:         2       0       0       0       0       0       0       0
  3148 ;;Total ram usage:        2 bytes
  3149 ;; Hardware stack levels used: 1
  3150 ;; Hardware stack levels required when called: 4
  3151 ;; This function calls:
  3152 ;;		Nothing
  3153 ;; This function is called by:
  3154 ;;		_EUSART_Initialize
  3155 ;; This function uses a non-reentrant model
  3156 ;;
  3157                           
  3158     05E1                     _EUSART_SetOverrunErrorHandler:	
  3159                           ;psect for function _EUSART_SetOverrunErrorHandler
  3160                           
  3161     05E1                     l1924:	
  3162                           ;incstack = 0
  3163                           ; Regs used in _EUSART_SetOverrunErrorHandler: [wreg]
  3164                           
  3165                           
  3166                           ;mcc_generated_files/eusart.c: 269:     EUSART_OverrunErrorHandler = interruptHandler;
  3167     05E1  0872               	movf	EUSART_SetOverrunErrorHandler@interruptHandler+1,w
  3168     05E2  0020               	movlb	0	; select bank0
  3169     05E3  00BD               	movwf	_EUSART_OverrunErrorHandler+1
  3170     05E4  0871               	movf	EUSART_SetOverrunErrorHandler@interruptHandler,w
  3171     05E5  00BC               	movwf	_EUSART_OverrunErrorHandler
  3172     05E6                     l394:
  3173     05E6  0008               	return
  3174     05E7                     __end_of_EUSART_SetOverrunErrorHandler:
  3175                           
  3176                           	psect	text14
  3177     05E7                     __ptext14:	
  3178 ;; *************** function _EUSART_SetFramingErrorHandler *****************
  3179 ;; Defined at:
  3180 ;;		line 264 in file "mcc_generated_files/eusart.c"
  3181 ;; Parameters:    Size  Location     Type
  3182 ;;  interruptHan    2    1[COMMON] PTR FTN()void 
  3183 ;;		 -> EUSART_DefaultFramingErrorHandler(1), 
  3184 ;; Auto vars:     Size  Location     Type
  3185 ;;		None
  3186 ;; Return value:  Size  Location     Type
  3187 ;;                  1    wreg      void 
  3188 ;; Registers used:
  3189 ;;		wreg
  3190 ;; Tracked objects:
  3191 ;;		On entry : 0/0
  3192 ;;		On exit  : 0/0
  3193 ;;		Unchanged: 0/0
  3194 ;; Data sizes:     COMMON   BANK0   BANK1   BANK2   BANK3   BANK4   BANK5   BANK6
  3195 ;;      Params:         2       0       0       0       0       0       0       0
  3196 ;;      Locals:         0       0       0       0       0       0       0       0
  3197 ;;      Temps:          0       0       0       0       0       0       0       0
  3198 ;;      Totals:         2       0       0       0       0       0       0       0
  3199 ;;Total ram usage:        2 bytes
  3200 ;; Hardware stack levels used: 1
  3201 ;; Hardware stack levels required when called: 4
  3202 ;; This function calls:
  3203 ;;		Nothing
  3204 ;; This function is called by:
  3205 ;;		_EUSART_Initialize
  3206 ;; This function uses a non-reentrant model
  3207 ;;
  3208                           
  3209     05E7                     _EUSART_SetFramingErrorHandler:	
  3210                           ;psect for function _EUSART_SetFramingErrorHandler
  3211                           
  3212     05E7                     l1922:	
  3213                           ;incstack = 0
  3214                           ; Regs used in _EUSART_SetFramingErrorHandler: [wreg]
  3215                           
  3216                           
  3217                           ;mcc_generated_files/eusart.c: 265:     EUSART_FramingErrorHandler = interruptHandler;
  3218     05E7  0872               	movf	EUSART_SetFramingErrorHandler@interruptHandler+1,w
  3219     05E8  0020               	movlb	0	; select bank0
  3220     05E9  00BF               	movwf	_EUSART_FramingErrorHandler+1
  3221     05EA  0871               	movf	EUSART_SetFramingErrorHandler@interruptHandler,w
  3222     05EB  00BE               	movwf	_EUSART_FramingErrorHandler
  3223     05EC                     l391:
  3224     05EC  0008               	return
  3225     05ED                     __end_of_EUSART_SetFramingErrorHandler:
  3226                           
  3227                           	psect	text15
  3228     05ED                     __ptext15:	
  3229 ;; *************** function _EUSART_SetErrorHandler *****************
  3230 ;; Defined at:
  3231 ;;		line 272 in file "mcc_generated_files/eusart.c"
  3232 ;; Parameters:    Size  Location     Type
  3233 ;;  interruptHan    2    1[COMMON] PTR FTN()void 
  3234 ;;		 -> EUSART_DefaultErrorHandler(1), 
  3235 ;; Auto vars:     Size  Location     Type
  3236 ;;		None
  3237 ;; Return value:  Size  Location     Type
  3238 ;;                  1    wreg      void 
  3239 ;; Registers used:
  3240 ;;		wreg
  3241 ;; Tracked objects:
  3242 ;;		On entry : 0/0
  3243 ;;		On exit  : 0/0
  3244 ;;		Unchanged: 0/0
  3245 ;; Data sizes:     COMMON   BANK0   BANK1   BANK2   BANK3   BANK4   BANK5   BANK6
  3246 ;;      Params:         2       0       0       0       0       0       0       0
  3247 ;;      Locals:         0       0       0       0       0       0       0       0
  3248 ;;      Temps:          0       0       0       0       0       0       0       0
  3249 ;;      Totals:         2       0       0       0       0       0       0       0
  3250 ;;Total ram usage:        2 bytes
  3251 ;; Hardware stack levels used: 1
  3252 ;; Hardware stack levels required when called: 4
  3253 ;; This function calls:
  3254 ;;		Nothing
  3255 ;; This function is called by:
  3256 ;;		_EUSART_Initialize
  3257 ;; This function uses a non-reentrant model
  3258 ;;
  3259                           
  3260     05ED                     _EUSART_SetErrorHandler:	
  3261                           ;psect for function _EUSART_SetErrorHandler
  3262                           
  3263     05ED                     l1926:	
  3264                           ;incstack = 0
  3265                           ; Regs used in _EUSART_SetErrorHandler: [wreg]
  3266                           
  3267                           
  3268                           ;mcc_generated_files/eusart.c: 273:     EUSART_ErrorHandler = interruptHandler;
  3269     05ED  0872               	movf	EUSART_SetErrorHandler@interruptHandler+1,w
  3270     05EE  0020               	movlb	0	; select bank0
  3271     05EF  00BB               	movwf	_EUSART_ErrorHandler+1
  3272     05F0  0871               	movf	EUSART_SetErrorHandler@interruptHandler,w
  3273     05F1  00BA               	movwf	_EUSART_ErrorHandler
  3274     05F2                     l397:
  3275     05F2  0008               	return
  3276     05F3                     __end_of_EUSART_SetErrorHandler:
  3277                           
  3278                           	psect	text16
  3279     0053                     __ptext16:	
  3280 ;; *************** function _LIN_handler *****************
  3281 ;; Defined at:
  3282 ;;		line 91 in file "mcc_generated_files/LINDrivers/lin_slave.c"
  3283 ;; Parameters:    Size  Location     Type
  3284 ;;		None
  3285 ;; Auto vars:     Size  Location     Type
  3286 ;;		None
  3287 ;; Return value:  Size  Location     Type
  3288 ;;                  1    wreg      enum E204
  3289 ;; Registers used:
  3290 ;;		wreg, fsr0l, fsr0h, fsr1l, fsr1h, status,2, status,0, pclath, cstack
  3291 ;; Tracked objects:
  3292 ;;		On entry : 0/0
  3293 ;;		On exit  : 0/0
  3294 ;;		Unchanged: 0/0
  3295 ;; Data sizes:     COMMON   BANK0   BANK1   BANK2   BANK3   BANK4   BANK5   BANK6
  3296 ;;      Params:         0       0       0       0       0       0       0       0
  3297 ;;      Locals:         0       0       0       0       0       0       0       0
  3298 ;;      Temps:          0       0       3       0       0       0       0       0
  3299 ;;      Totals:         0       0       3       0       0       0       0       0
  3300 ;;Total ram usage:        3 bytes
  3301 ;; Hardware stack levels used: 1
  3302 ;; Hardware stack levels required when called: 7
  3303 ;; This function calls:
  3304 ;;		NULL
  3305 ;;		_EUSART_Read
  3306 ;;		_EUSART_is_rx_ready
  3307 ;;		_LIN_breakCheck
  3308 ;;		_LIN_checkPID
  3309 ;;		_LIN_disableRx
  3310 ;;		_LIN_enableRx
  3311 ;;		_LIN_getChecksum
  3312 ;;		_LIN_getFromTable
  3313 ;;		_LIN_queuePacket
  3314 ;;		_LIN_startTimer
  3315 ;;		_LIN_stopTimer
  3316 ;;		_memset
  3317 ;;		_processLIN
  3318 ;; This function is called by:
  3319 ;;		_main
  3320 ;; This function uses a non-reentrant model
  3321 ;;
  3322                           
  3323     0053                     _LIN_handler:	
  3324                           ;psect for function _LIN_handler
  3325                           
  3326     0053                     l2338:	
  3327                           ;incstack = 0
  3328                           ; Regs used in _LIN_handler: [wreg-fsr1h+status,2+status,0+pclath+cstack]
  3329                           
  3330                           
  3331                           ;mcc_generated_files/LINDrivers/lin_slave.c: 92:     static lin_rx_state_t LIN_rxState =
      +                           LIN_RX_IDLE;;mcc_generated_files/LINDrivers/lin_slave.c: 93:     static uint8_t rxDataI
      +                          ndex = 0;;mcc_generated_files/LINDrivers/lin_slave.c: 95:     if(LIN_rxInProgress == 1){
  3332     0053  0020               	movlb	0	; select bank0
  3333     0054  0354               	decf	_LIN_rxInProgress,w
  3334     0055  1D03               	btfss	3,2
  3335     0056  2858               	goto	u1731
  3336     0057  2859               	goto	u1730
  3337     0058                     u1731:
  3338     0058  2956               	goto	l2430
  3339     0059                     u1730:
  3340     0059                     l2340:
  3341                           
  3342                           ;mcc_generated_files/LINDrivers/lin_slave.c: 96:         if(LIN_timerRunning == 0){
  3343     0059  0852               	movf	_LIN_timerRunning,w
  3344     005A  1D03               	btfss	3,2
  3345     005B  285D               	goto	u1741
  3346     005C  285E               	goto	u1740
  3347     005D                     u1741:
  3348     005D  2956               	goto	l2430
  3349     005E                     u1740:
  3350     005E                     l2342:
  3351                           
  3352                           ;mcc_generated_files/LINDrivers/lin_slave.c: 98:             LIN_rxState = LIN_RX_ERROR;
  3353     005E  3008               	movlw	8
  3354     005F  00D0               	movwf	LIN_handler@LIN_rxState
  3355     0060  2956               	goto	l2430
  3356     0061                     l2344:
  3357                           
  3358                           ;mcc_generated_files/LINDrivers/lin_slave.c: 104:             if(EUSART_is_rx_ready() > 
      +                          0){
  3359     0061  3185  25B8  3180   	fcall	_EUSART_is_rx_ready
  3360     0064  3A00               	xorlw	0
  3361     0065  1903               	skipnz
  3362     0066  2868               	goto	u1751
  3363     0067  2869               	goto	u1750
  3364     0068                     u1751:
  3365     0068  297F               	goto	l163
  3366     0069                     u1750:
  3367     0069                     l2346:
  3368                           
  3369                           ;mcc_generated_files/LINDrivers/lin_slave.c: 106:                 LIN_startTimer(15);
  3370     0069  300F               	movlw	15
  3371     006A  3185  2594  3180   	fcall	_LIN_startTimer
  3372     006D                     l2348:
  3373                           
  3374                           ;mcc_generated_files/LINDrivers/lin_slave.c: 107:                 LIN_rxInProgress = 1;
  3375     006D  0020               	movlb	0	; select bank0
  3376     006E  01D4               	clrf	_LIN_rxInProgress
  3377     006F  0AD4               	incf	_LIN_rxInProgress,f
  3378     0070                     l2350:
  3379                           
  3380                           ;mcc_generated_files/LINDrivers/lin_slave.c: 108:                 LIN_rxState = LIN_RX_B
      +                          REAK;
  3381     0070  01D0               	clrf	LIN_handler@LIN_rxState
  3382     0071  0AD0               	incf	LIN_handler@LIN_rxState,f
  3383     0072  297F               	goto	l163
  3384     0073                     l2352:
  3385                           
  3386                           ;mcc_generated_files/LINDrivers/lin_slave.c: 112:             if(EUSART_is_rx_ready() > 
      +                          0){
  3387     0073  3185  25B8  3180   	fcall	_EUSART_is_rx_ready
  3388     0076  3A00               	xorlw	0
  3389     0077  1903               	skipnz
  3390     0078  287A               	goto	u1761
  3391     0079  287B               	goto	u1760
  3392     007A                     u1761:
  3393     007A  297F               	goto	l163
  3394     007B                     u1760:
  3395     007B                     l2354:
  3396                           
  3397                           ;mcc_generated_files/LINDrivers/lin_slave.c: 113:                 if(LIN_breakCheck() ==
      +                           1){
  3398     007B  3185  2555  3180   	fcall	_LIN_breakCheck
  3399     007E  3A01               	xorlw	1
  3400     007F  1D03               	skipz
  3401     0080  2882               	goto	u1771
  3402     0081  2883               	goto	u1770
  3403     0082                     u1771:
  3404     0082  2887               	goto	l2358
  3405     0083                     u1770:
  3406     0083                     l2356:
  3407                           
  3408                           ;mcc_generated_files/LINDrivers/lin_slave.c: 114:                     LIN_rxState = LIN_
      +                          RX_SYNC;
  3409     0083  3002               	movlw	2
  3410     0084  0020               	movlb	0	; select bank0
  3411     0085  00D0               	movwf	LIN_handler@LIN_rxState
  3412                           
  3413                           ;mcc_generated_files/LINDrivers/lin_slave.c: 115:                 } else {
  3414     0086  297F               	goto	l163
  3415     0087                     l2358:
  3416                           
  3417                           ;mcc_generated_files/LINDrivers/lin_slave.c: 116:                     LIN_rxState = LIN_
      +                          RX_ERROR;
  3418     0087  3008               	movlw	8
  3419     0088  0020               	movlb	0	; select bank0
  3420     0089  00D0               	movwf	LIN_handler@LIN_rxState
  3421     008A  297F               	goto	l163
  3422     008B                     l2360:
  3423                           
  3424                           ;mcc_generated_files/LINDrivers/lin_slave.c: 121:             if(EUSART_is_rx_ready() > 
      +                          0){
  3425     008B  3185  25B8  3180   	fcall	_EUSART_is_rx_ready
  3426     008E  3A00               	xorlw	0
  3427     008F  1903               	skipnz
  3428     0090  2892               	goto	u1781
  3429     0091  2893               	goto	u1780
  3430     0092                     u1781:
  3431     0092  297F               	goto	l163
  3432     0093                     u1780:
  3433     0093                     l2362:
  3434                           
  3435                           ;mcc_generated_files/LINDrivers/lin_slave.c: 122:                 if(EUSART_Read() == 0x
      +                          55){
  3436     0093  3183  23FC  3180   	fcall	_EUSART_Read
  3437     0096  3A55               	xorlw	85
  3438     0097  1D03               	skipz
  3439     0098  289A               	goto	u1791
  3440     0099  289B               	goto	u1790
  3441     009A                     u1791:
  3442     009A  2887               	goto	l2358
  3443     009B                     u1790:
  3444     009B                     l2364:
  3445                           
  3446                           ;mcc_generated_files/LINDrivers/lin_slave.c: 123:                     LIN_rxState = LIN_
      +                          RX_PID;
  3447     009B  3003               	movlw	3
  3448     009C  0020               	movlb	0	; select bank0
  3449     009D  00D0               	movwf	LIN_handler@LIN_rxState
  3450                           
  3451                           ;mcc_generated_files/LINDrivers/lin_slave.c: 124:                 } else {
  3452     009E  297F               	goto	l163
  3453     009F                     l2368:
  3454                           
  3455                           ;mcc_generated_files/LINDrivers/lin_slave.c: 130:             if(EUSART_is_rx_ready() > 
      +                          0){
  3456     009F  3185  25B8  3180   	fcall	_EUSART_is_rx_ready
  3457     00A2  3A00               	xorlw	0
  3458     00A3  1903               	skipnz
  3459     00A4  28A6               	goto	u1801
  3460     00A5  28A7               	goto	u1800
  3461     00A6                     u1801:
  3462     00A6  297F               	goto	l163
  3463     00A7                     u1800:
  3464     00A7                     l2370:
  3465                           
  3466                           ;mcc_generated_files/LINDrivers/lin_slave.c: 131:                 LIN_packet.PID = EUSAR
      +                          T_Read();
  3467     00A7  3183  23FC  3180   	fcall	_EUSART_Read
  3468     00AA  0020               	movlb	0	; select bank0
  3469     00AB  00D5               	movwf	_LIN_packet
  3470     00AC                     l2372:
  3471                           
  3472                           ;mcc_generated_files/LINDrivers/lin_slave.c: 134:                 if(LIN_checkPID(LIN_pa
      +                          cket.PID) == 0){
  3473     00AC  0855               	movf	_LIN_packet,w
  3474     00AD  3184  24E6  3180   	fcall	_LIN_checkPID
  3475     00B0  3A00               	xorlw	0
  3476     00B1  1D03               	skipz
  3477     00B2  28B4               	goto	u1811
  3478     00B3  28B5               	goto	u1810
  3479     00B4                     u1811:
  3480     00B4  28B6               	goto	l2376
  3481     00B5                     u1810:
  3482     00B5  2887               	goto	l2358
  3483     00B6                     l2376:
  3484                           
  3485                           ;mcc_generated_files/LINDrivers/lin_slave.c: 138:                 LIN_packet.type = LIN_
      +                          getFromTable(LIN_packet.PID, TYPE);
  3486     00B6  01F1               	clrf	LIN_getFromTable@param
  3487     00B7  0AF1               	incf	LIN_getFromTable@param,f
  3488     00B8  0020               	movlb	0	; select bank0
  3489     00B9  0855               	movf	_LIN_packet,w
  3490     00BA  3182  2206  3180   	fcall	_LIN_getFromTable
  3491     00BD  0020               	movlb	0	; select bank0
  3492     00BE  00DF               	movwf	_LIN_packet+10
  3493     00BF                     l2378:
  3494                           
  3495                           ;mcc_generated_files/LINDrivers/lin_slave.c: 139:                 if(LIN_packet.type == 
      +                          RECEIVE){
  3496     00BF  035F               	decf	_LIN_packet+10,w
  3497     00C0  1D03               	btfss	3,2
  3498     00C1  28C3               	goto	u1821
  3499     00C2  28C4               	goto	u1820
  3500     00C3                     u1821:
  3501     00C3  28CF               	goto	l2384
  3502     00C4                     u1820:
  3503     00C4                     l2380:
  3504                           
  3505                           ;mcc_generated_files/LINDrivers/lin_slave.c: 140:                     LIN_packet.length 
      +                          = LIN_getFromTable(LIN_packet.PID, LENGTH);
  3506     00C4  3002               	movlw	2
  3507     00C5  00F1               	movwf	LIN_getFromTable@param
  3508     00C6  0855               	movf	_LIN_packet,w
  3509     00C7  3182  2206  3180   	fcall	_LIN_getFromTable
  3510     00CA  0020               	movlb	0	; select bank0
  3511     00CB  00E0               	movwf	_LIN_packet+11
  3512     00CC                     l2382:
  3513                           
  3514                           ;mcc_generated_files/LINDrivers/lin_slave.c: 141:                     LIN_rxState = LIN_
      +                          RX_DATA;
  3515     00CC  3004               	movlw	4
  3516     00CD  00D0               	movwf	LIN_handler@LIN_rxState
  3517                           
  3518                           ;mcc_generated_files/LINDrivers/lin_slave.c: 142:                 }
  3519     00CE  297F               	goto	l163
  3520     00CF                     l2384:
  3521                           
  3522                           ;mcc_generated_files/LINDrivers/lin_slave.c: 144:                     LIN_disableRx();
  3523     00CF  3186  2602  3180   	fcall	_LIN_disableRx
  3524     00D2                     l2386:
  3525                           
  3526                           ;mcc_generated_files/LINDrivers/lin_slave.c: 145:                     LIN_rxState = LIN_
      +                          RX_TX_DATA;
  3527     00D2  3006               	movlw	6
  3528     00D3  0020               	movlb	0	; select bank0
  3529     00D4  00D0               	movwf	LIN_handler@LIN_rxState
  3530     00D5  297F               	goto	l163
  3531     00D6                     l2388:
  3532                           
  3533                           ;mcc_generated_files/LINDrivers/lin_slave.c: 150:             if(EUSART_is_rx_ready() > 
      +                          0){
  3534     00D6  3185  25B8  3180   	fcall	_EUSART_is_rx_ready
  3535     00D9  3A00               	xorlw	0
  3536     00DA  1903               	skipnz
  3537     00DB  28DD               	goto	u1831
  3538     00DC  28DE               	goto	u1830
  3539     00DD                     u1831:
  3540     00DD  297F               	goto	l163
  3541     00DE                     u1830:
  3542     00DE                     l2390:
  3543                           
  3544                           ;mcc_generated_files/LINDrivers/lin_slave.c: 151:                 LIN_packet.data[rxData
      +                          Index] = EUSART_Read();
  3545     00DE  3183  23FC  3180   	fcall	_EUSART_Read
  3546     00E1  0021               	movlb	1	; select bank1
  3547     00E2  00A8               	movwf	??_LIN_handler^(0+128)
  3548     00E3  0020               	movlb	0	; select bank0
  3549     00E4  084F               	movf	LIN_handler@rxDataIndex,w
  3550     00E5  3E56               	addlw	(low ((_LIN_packet| 0+1)))& (0+255)
  3551     00E6  0086               	movwf	6
  3552     00E7  0187               	clrf	7
  3553     00E8  0021               	movlb	1	; select bank1
  3554     00E9  0828               	movf	??_LIN_handler^(0+128),w
  3555     00EA  0081               	movwf	1
  3556     00EB                     l2392:
  3557                           
  3558                           ;mcc_generated_files/LINDrivers/lin_slave.c: 152:                 if(++rxDataIndex >= LI
      +                          N_packet.length){
  3559     00EB  0020               	movlb	0	; select bank0
  3560     00EC  0860               	movf	_LIN_packet+11,w
  3561     00ED  0021               	movlb	1	; select bank1
  3562     00EE  00A8               	movwf	??_LIN_handler^(0+128)
  3563     00EF  01A9               	clrf	(??_LIN_handler^(0+128)+1)
  3564     00F0  1BA8               	btfsc	??_LIN_handler^(0+128),7
  3565     00F1  03A9               	decf	(??_LIN_handler^(0+128)+1),f
  3566     00F2  3001               	movlw	1
  3567     00F3  00AA               	movwf	(??_LIN_handler+2)^(0+128)
  3568     00F4  082A               	movf	(??_LIN_handler+2)^(0+128),w
  3569     00F5  0020               	movlb	0	; select bank0
  3570     00F6  07CF               	addwf	LIN_handler@rxDataIndex,f
  3571     00F7  0021               	movlb	1	; select bank1
  3572     00F8  0829               	movf	(??_LIN_handler+1)^(0+128),w
  3573     00F9  3A80               	xorlw	128
  3574     00FA  3C80               	sublw	128
  3575     00FB  1D03               	skipz
  3576     00FC  2900               	goto	u1845
  3577     00FD  0828               	movf	??_LIN_handler^(0+128),w
  3578     00FE  0020               	movlb	0	; select bank0
  3579     00FF  024F               	subwf	LIN_handler@rxDataIndex,w
  3580     0100                     u1845:
  3581     0100  1C03               	skipc
  3582     0101  2903               	goto	u1841
  3583     0102  2904               	goto	u1840
  3584     0103                     u1841:
  3585     0103  297F               	goto	l163
  3586     0104                     u1840:
  3587     0104                     l2394:
  3588                           
  3589                           ;mcc_generated_files/LINDrivers/lin_slave.c: 154:                     rxDataIndex = 0;
  3590     0104  0020               	movlb	0	; select bank0
  3591     0105  01CF               	clrf	LIN_handler@rxDataIndex
  3592     0106                     l2396:
  3593                           
  3594                           ;mcc_generated_files/LINDrivers/lin_slave.c: 155:                     LIN_rxState = LIN_
      +                          RX_CHECKSUM;
  3595     0106  3005               	movlw	5
  3596     0107  00D0               	movwf	LIN_handler@LIN_rxState
  3597     0108  297F               	goto	l163
  3598     0109                     l2398:
  3599                           
  3600                           ;mcc_generated_files/LINDrivers/lin_slave.c: 160:             if(EUSART_is_rx_ready() > 
      +                          0){
  3601     0109  3185  25B8  3180   	fcall	_EUSART_is_rx_ready
  3602     010C  3A00               	xorlw	0
  3603     010D  1903               	skipnz
  3604     010E  2910               	goto	u1851
  3605     010F  2911               	goto	u1850
  3606     0110                     u1851:
  3607     0110  297F               	goto	l163
  3608     0111                     u1850:
  3609     0111                     l2400:
  3610                           
  3611                           ;mcc_generated_files/LINDrivers/lin_slave.c: 161:                 LIN_packet.checksum = 
      +                          EUSART_Read();
  3612     0111  3183  23FC  3180   	fcall	_EUSART_Read
  3613     0114  0020               	movlb	0	; select bank0
  3614     0115  00DE               	movwf	_LIN_packet+9
  3615                           
  3616                           ;mcc_generated_files/LINDrivers/lin_slave.c: 162:                 if(LIN_packet.checksum
      +                           != LIN_getChecksum(LIN_packet.length, LIN_packet.PID, LIN_packet.data)) {
  3617     0116  0855               	movf	_LIN_packet,w
  3618     0117  00F1               	movwf	LIN_getChecksum@pid
  3619     0118  3056               	movlw	(low ((_LIN_packet| 0+1)))& (0+255)
  3620     0119  00F2               	movwf	LIN_getChecksum@data
  3621     011A  0860               	movf	_LIN_packet+11,w
  3622     011B  3183  23A1  3180   	fcall	_LIN_getChecksum
  3623     011E  0020               	movlb	0	; select bank0
  3624     011F  065E               	xorwf	_LIN_packet+9,w
  3625     0120  1903               	skipnz
  3626     0121  2923               	goto	u1861
  3627     0122  2924               	goto	u1860
  3628     0123                     u1861:
  3629     0123  2925               	goto	l2404
  3630     0124                     u1860:
  3631     0124  2887               	goto	l2358
  3632     0125                     l2404:
  3633                           
  3634                           ;mcc_generated_files/LINDrivers/lin_slave.c: 166:                     LIN_rxState = LIN_
      +                          RX_RDY;
  3635     0125  3007               	movlw	7
  3636     0126  00D0               	movwf	LIN_handler@LIN_rxState
  3637     0127  297F               	goto	l163
  3638     0128                     l2406:
  3639                           
  3640                           ;mcc_generated_files/LINDrivers/lin_slave.c: 171:             LIN_queuePacket(LIN_packet
      +                          .PID);
  3641     0128  0020               	movlb	0	; select bank0
  3642     0129  0855               	movf	_LIN_packet,w
  3643     012A  3182  2270  3180   	fcall	_LIN_queuePacket
  3644     012D                     l2408:
  3645                           
  3646                           ;mcc_generated_files/LINDrivers/lin_slave.c: 172:             LIN_rxState = LIN_RX_RDY;
  3647     012D  3007               	movlw	7
  3648     012E  0020               	movlb	0	; select bank0
  3649     012F  00D0               	movwf	LIN_handler@LIN_rxState
  3650     0130                     l2410:
  3651                           
  3652                           ;mcc_generated_files/LINDrivers/lin_slave.c: 174:             LIN_processData();
  3653     0130  0020               	movlb	0	; select bank0
  3654     0131  0847               	movf	_LIN_processData+1,w
  3655     0132  008A               	movwf	10
  3656     0133  0846               	movf	_LIN_processData,w
  3657     0134  000A               	callw
  3658     0135  3180               	pagesel	$
  3659     0136                     l2412:
  3660                           
  3661                           ;mcc_generated_files/LINDrivers/lin_slave.c: 176:             LIN_stopTimer();
  3662     0136  3185  25F3  3180   	fcall	_LIN_stopTimer
  3663     0139                     l2414:
  3664                           
  3665                           ;mcc_generated_files/LINDrivers/lin_slave.c: 177:             rxDataIndex = 0;
  3666     0139  0020               	movlb	0	; select bank0
  3667     013A  01CF               	clrf	LIN_handler@rxDataIndex
  3668     013B                     l2416:
  3669                           
  3670                           ;mcc_generated_files/LINDrivers/lin_slave.c: 178:             LIN_rxInProgress = 0;
  3671     013B  01D4               	clrf	_LIN_rxInProgress
  3672     013C                     l2418:
  3673                           
  3674                           ;mcc_generated_files/LINDrivers/lin_slave.c: 179:             memset(LIN_packet.rawPacke
      +                          t, 0, sizeof(LIN_packet.rawPacket));
  3675     013C  3000               	movlw	0
  3676     013D  00F1               	movwf	memset@c
  3677     013E  00F2               	movwf	memset@c+1
  3678     013F  300D               	movlw	13
  3679     0140  00F3               	movwf	memset@n
  3680     0141  3000               	movlw	0
  3681     0142  00F4               	movwf	memset@n+1
  3682     0143  3055               	movlw	(low (_LIN_packet| 0))& (0+255)
  3683     0144  3184  24CC  3180   	fcall	_memset
  3684     0147                     l2420:
  3685                           
  3686                           ;mcc_generated_files/LINDrivers/lin_slave.c: 181:             if(TXSTAbits.TRMT){
  3687     0147  0023               	movlb	3	; select bank3
  3688     0148  1C9E               	btfss	30,1	;volatile
  3689     0149  294B               	goto	u1871
  3690     014A  294C               	goto	u1870
  3691     014B                     u1871:
  3692     014B  2952               	goto	l2426
  3693     014C                     u1870:
  3694     014C                     l2422:
  3695                           
  3696                           ;mcc_generated_files/LINDrivers/lin_slave.c: 182:                 LIN_enableRx();
  3697     014C  3185  25FD  3180   	fcall	_LIN_enableRx
  3698     014F                     l2424:
  3699                           
  3700                           ;mcc_generated_files/LINDrivers/lin_slave.c: 183:                 LIN_rxState = LIN_RX_I
      +                          DLE;
  3701     014F  0020               	movlb	0	; select bank0
  3702     0150  01D0               	clrf	LIN_handler@LIN_rxState
  3703                           
  3704                           ;mcc_generated_files/LINDrivers/lin_slave.c: 184:             } else {
  3705     0151  297F               	goto	l163
  3706     0152                     l2426:
  3707                           
  3708                           ;mcc_generated_files/LINDrivers/lin_slave.c: 185:                 LIN_rxState = LIN_RX_W
      +                          AIT;
  3709     0152  3009               	movlw	9
  3710     0153  0020               	movlb	0	; select bank0
  3711     0154  00D0               	movwf	LIN_handler@LIN_rxState
  3712     0155  297F               	goto	l163
  3713     0156                     l2430:
  3714     0156  0850               	movf	LIN_handler@LIN_rxState,w
  3715     0157  0021               	movlb	1	; select bank1
  3716     0158  00A8               	movwf	??_LIN_handler^(0+128)
  3717     0159  01A9               	clrf	(??_LIN_handler^(0+128)+1)
  3718                           
  3719                           ; Switch on 2 bytes has been partitioned into a top level switch of size 1, and 1 sub-sw
      +                          itches
  3720                           ; Switch size 1, requested type "simple"
  3721                           ; Number of cases is 1, Range of values is 0 to 0
  3722                           ; switch strategies available:
  3723                           ; Name         Instructions Cycles
  3724                           ; simple_byte            4     3 (average)
  3725                           ; direct_byte            8     6 (fixed)
  3726                           ; jumptable            260     6 (fixed)
  3727                           ;	Chosen strategy is simple_byte
  3728     015A  0829               	movf	(??_LIN_handler+1)^(0+128),w
  3729     015B  3A00               	xorlw	0	; case 0
  3730     015C  1903               	skipnz
  3731     015D  295F               	goto	l2538
  3732     015E  297F               	goto	l163
  3733     015F                     l2538:
  3734                           
  3735                           ; Switch size 1, requested type "simple"
  3736                           ; Number of cases is 10, Range of values is 0 to 9
  3737                           ; switch strategies available:
  3738                           ; Name         Instructions Cycles
  3739                           ; direct_byte           26     6 (fixed)
  3740                           ; simple_byte           31    16 (average)
  3741                           ; jumptable            260     6 (fixed)
  3742                           ;	Chosen strategy is simple_byte
  3743     015F  0828               	movf	??_LIN_handler^(0+128),w
  3744     0160  3A00               	xorlw	0	; case 0
  3745     0161  1903               	skipnz
  3746     0162  2861               	goto	l2344
  3747     0163  3A01               	xorlw	1	; case 1
  3748     0164  1903               	skipnz
  3749     0165  2873               	goto	l2352
  3750     0166  3A03               	xorlw	3	; case 2
  3751     0167  1903               	skipnz
  3752     0168  288B               	goto	l2360
  3753     0169  3A01               	xorlw	1	; case 3
  3754     016A  1903               	skipnz
  3755     016B  289F               	goto	l2368
  3756     016C  3A07               	xorlw	7	; case 4
  3757     016D  1903               	skipnz
  3758     016E  28D6               	goto	l2388
  3759     016F  3A01               	xorlw	1	; case 5
  3760     0170  1903               	skipnz
  3761     0171  2909               	goto	l2398
  3762     0172  3A03               	xorlw	3	; case 6
  3763     0173  1903               	skipnz
  3764     0174  2928               	goto	l2406
  3765     0175  3A01               	xorlw	1	; case 7
  3766     0176  1903               	skipnz
  3767     0177  2930               	goto	l2410
  3768     0178  3A0F               	xorlw	15	; case 8
  3769     0179  1903               	skipnz
  3770     017A  2936               	goto	l2412
  3771     017B  3A01               	xorlw	1	; case 9
  3772     017C  1903               	skipnz
  3773     017D  2947               	goto	l2420
  3774     017E  297F               	goto	l163
  3775     017F                     l163:
  3776     017F  0008               	return
  3777     0180                     __end_of_LIN_handler:
  3778                           
  3779                           	psect	text17
  3780     02D9                     __ptext17:	
  3781 ;; *************** function _processLIN *****************
  3782 ;; Defined at:
  3783 ;;		line 58 in file "mcc_generated_files/LINDrivers/lin_app.c"
  3784 ;; Parameters:    Size  Location     Type
  3785 ;;		None
  3786 ;; Auto vars:     Size  Location     Type
  3787 ;;  tempRxData      8    2[BANK0 ] unsigned char [8]
  3788 ;;  cmd             1   10[BANK0 ] unsigned char 
  3789 ;; Return value:  Size  Location     Type
  3790 ;;                  1    wreg      void 
  3791 ;; Registers used:
  3792 ;;		wreg, fsr0l, fsr0h, fsr1l, fsr1h, status,2, status,0, pclath, cstack
  3793 ;; Tracked objects:
  3794 ;;		On entry : 0/0
  3795 ;;		On exit  : 0/0
  3796 ;;		Unchanged: 0/0
  3797 ;; Data sizes:     COMMON   BANK0   BANK1   BANK2   BANK3   BANK4   BANK5   BANK6
  3798 ;;      Params:         0       0       0       0       0       0       0       0
  3799 ;;      Locals:         0       9       0       0       0       0       0       0
  3800 ;;      Temps:          0       2       0       0       0       0       0       0
  3801 ;;      Totals:         0      11       0       0       0       0       0       0
  3802 ;;Total ram usage:       11 bytes
  3803 ;; Hardware stack levels used: 1
  3804 ;; Hardware stack levels required when called: 6
  3805 ;; This function calls:
  3806 ;;		_LIN_getPacket
  3807 ;; This function is called by:
  3808 ;;		_LIN_Slave_Initialize
  3809 ;;		_LIN_handler
  3810 ;; This function uses a non-reentrant model
  3811 ;;
  3812                           
  3813     02D9                     _processLIN:	
  3814                           ;psect for function _processLIN
  3815                           
  3816     02D9                     l2324:	
  3817                           ;incstack = 0
  3818                           ; Regs used in _processLIN: [wreg-fsr1h+status,2+status,0+pclath+cstack]
  3819                           
  3820                           
  3821                           ;mcc_generated_files/LINDrivers/lin_app.c: 59:     uint8_t tempRxData[8];;mcc_generated_
      +                          files/LINDrivers/lin_app.c: 60:     uint8_t cmd;;mcc_generated_files/LINDrivers/lin_app.
      +                          c: 62:     cmd = LIN_getPacket(tempRxData);
  3822     02D9  3064               	movlw	(low (processLIN@tempRxData| 0))& (0+255)
  3823     02DA  3184  246C  3182   	fcall	_LIN_getPacket
  3824     02DD  0020               	movlb	0	; select bank0
  3825     02DE  00EC               	movwf	processLIN@cmd
  3826                           
  3827                           ;mcc_generated_files/LINDrivers/lin_app.c: 63:     switch (cmd) {
  3828     02DF  2B1C               	goto	l2332
  3829     02E0                     l19:	
  3830                           ;mcc_generated_files/LINDrivers/lin_app.c: 65:         case SW_STATE:
  3831                           
  3832                           
  3833                           ;mcc_generated_files/LINDrivers/lin_app.c: 66:             if ( (tempRxData[5] & 0B00100
      +                          000) == 0B00100000) {
  3834     02E0  1EE9               	btfss	processLIN@tempRxData+5,5
  3835     02E1  2AE3               	goto	u1681
  3836     02E2  2AE4               	goto	u1680
  3837     02E3                     u1681:
  3838     02E3  2AE7               	goto	l24
  3839     02E4                     u1680:
  3840     02E4                     l21:	
  3841                           ;mcc_generated_files/LINDrivers/lin_app.c: 67:                 do { LATBbits.LATB5 = 1; 
      +                          } while(0);
  3842                           
  3843     02E4  0022               	movlb	2	; select bank2
  3844     02E5  168D               	bsf	13,5	;volatile
  3845     02E6  2AE9               	goto	l23
  3846     02E7                     l24:	
  3847                           ;mcc_generated_files/LINDrivers/lin_app.c: 69:                 do { LATBbits.LATB5 = 0; 
      +                          } while(0);
  3848                           
  3849     02E7  0022               	movlb	2	; select bank2
  3850     02E8  128D               	bcf	13,5	;volatile
  3851     02E9                     l23:	
  3852                           ;mcc_generated_files/LINDrivers/lin_app.c: 70:             }
  3853                           
  3854                           
  3855                           ;mcc_generated_files/LINDrivers/lin_app.c: 72:             if ( (tempRxData[2] & 0B00000
      +                          010) == 0B00000010) {
  3856     02E9  0020               	movlb	0	; select bank0
  3857     02EA  1CE6               	btfss	processLIN@tempRxData+2,1
  3858     02EB  2AED               	goto	u1691
  3859     02EC  2AEE               	goto	u1690
  3860     02ED                     u1691:
  3861     02ED  2AF1               	goto	l30
  3862     02EE                     u1690:
  3863     02EE                     l27:	
  3864                           ;mcc_generated_files/LINDrivers/lin_app.c: 73:                 do { LATBbits.LATB4 = 1; 
      +                          } while(0);
  3865                           
  3866     02EE  0022               	movlb	2	; select bank2
  3867     02EF  160D               	bsf	13,4	;volatile
  3868     02F0  2AF3               	goto	l29
  3869     02F1                     l30:	
  3870                           ;mcc_generated_files/LINDrivers/lin_app.c: 75:                 do { LATBbits.LATB4 = 0; 
      +                          } while(0);
  3871                           
  3872     02F1  0022               	movlb	2	; select bank2
  3873     02F2  120D               	bcf	13,4	;volatile
  3874     02F3                     l29:	
  3875                           ;mcc_generated_files/LINDrivers/lin_app.c: 76:             }
  3876                           
  3877                           
  3878                           ;mcc_generated_files/LINDrivers/lin_app.c: 78:             if ( (tempRxData[2] & 0B00000
      +                          001) == 0B00000001) {
  3879     02F3  0020               	movlb	0	; select bank0
  3880     02F4  1C66               	btfss	processLIN@tempRxData+2,0
  3881     02F5  2AF7               	goto	u1701
  3882     02F6  2AF8               	goto	u1700
  3883     02F7                     u1701:
  3884     02F7  2AFB               	goto	l36
  3885     02F8                     u1700:
  3886     02F8                     l33:	
  3887                           ;mcc_generated_files/LINDrivers/lin_app.c: 79:                 do { LATBbits.LATB3 = 1; 
      +                          } while(0);
  3888                           
  3889     02F8  0022               	movlb	2	; select bank2
  3890     02F9  158D               	bsf	13,3	;volatile
  3891     02FA  2AFD               	goto	l2326
  3892     02FB                     l36:	
  3893                           ;mcc_generated_files/LINDrivers/lin_app.c: 81:                 do { LATBbits.LATB3 = 0; 
      +                          } while(0);
  3894                           
  3895     02FB  0022               	movlb	2	; select bank2
  3896     02FC  118D               	bcf	13,3	;volatile
  3897     02FD                     l2326:
  3898                           
  3899                           ;mcc_generated_files/LINDrivers/lin_app.c: 84:             if ( (tempRxData[1] & 0B11000
      +                          000) == 0B11000000) {
  3900     02FD  30C0               	movlw	192
  3901     02FE  0020               	movlb	0	; select bank0
  3902     02FF  0565               	andwf	processLIN@tempRxData+1,w
  3903     0300  00E2               	movwf	??_processLIN
  3904     0301  30C0               	movlw	192
  3905     0302  0662               	xorwf	??_processLIN,w
  3906     0303  1D03               	btfss	3,2
  3907     0304  2B06               	goto	u1711
  3908     0305  2B07               	goto	u1710
  3909     0306                     u1711:
  3910     0306  2B0A               	goto	l42
  3911     0307                     u1710:
  3912     0307                     l39:	
  3913                           ;mcc_generated_files/LINDrivers/lin_app.c: 85:                 do { LATBbits.LATB2 = 1; 
      +                          } while(0);
  3914                           
  3915     0307  0022               	movlb	2	; select bank2
  3916     0308  150D               	bsf	13,2	;volatile
  3917     0309  2B0C               	goto	l2328
  3918     030A                     l42:	
  3919                           ;mcc_generated_files/LINDrivers/lin_app.c: 87:                 do { LATBbits.LATB2 = 0; 
      +                          } while(0);
  3920                           
  3921     030A  0022               	movlb	2	; select bank2
  3922     030B  110D               	bcf	13,2	;volatile
  3923     030C                     l2328:
  3924                           
  3925                           ;mcc_generated_files/LINDrivers/lin_app.c: 90:             if ( (tempRxData[1] & 0B00110
      +                          000) == 0B00110000) {
  3926     030C  3030               	movlw	48
  3927     030D  0020               	movlb	0	; select bank0
  3928     030E  0565               	andwf	processLIN@tempRxData+1,w
  3929     030F  00E2               	movwf	??_processLIN
  3930     0310  3030               	movlw	48
  3931     0311  0662               	xorwf	??_processLIN,w
  3932     0312  1D03               	btfss	3,2
  3933     0313  2B15               	goto	u1721
  3934     0314  2B16               	goto	u1720
  3935     0315                     u1721:
  3936     0315  2B19               	goto	l48
  3937     0316                     u1720:
  3938     0316                     l45:	
  3939                           ;mcc_generated_files/LINDrivers/lin_app.c: 91:                 do { LATBbits.LATB1 = 1; 
      +                          } while(0);
  3940                           
  3941     0316  0022               	movlb	2	; select bank2
  3942     0317  148D               	bsf	13,1	;volatile
  3943     0318  2B29               	goto	l52
  3944     0319                     l48:	
  3945                           ;mcc_generated_files/LINDrivers/lin_app.c: 93:                 do { LATBbits.LATB1 = 0; 
      +                          } while(0);
  3946                           
  3947     0319  0022               	movlb	2	; select bank2
  3948     031A  108D               	bcf	13,1	;volatile
  3949     031B  2B29               	goto	l52
  3950     031C                     l2332:
  3951     031C  086C               	movf	processLIN@cmd,w
  3952     031D  00E2               	movwf	??_processLIN
  3953     031E  01E3               	clrf	??_processLIN+1
  3954                           
  3955                           ; Switch on 2 bytes has been partitioned into a top level switch of size 1, and 1 sub-sw
      +                          itches
  3956                           ; Switch size 1, requested type "simple"
  3957                           ; Number of cases is 1, Range of values is 0 to 0
  3958                           ; switch strategies available:
  3959                           ; Name         Instructions Cycles
  3960                           ; simple_byte            4     3 (average)
  3961                           ; direct_byte            8     6 (fixed)
  3962                           ; jumptable            260     6 (fixed)
  3963                           ;	Chosen strategy is simple_byte
  3964     031F  0863               	movf	??_processLIN+1,w
  3965     0320  3A00               	xorlw	0	; case 0
  3966     0321  1903               	skipnz
  3967     0322  2B24               	goto	l2540
  3968     0323  2B29               	goto	l52
  3969     0324                     l2540:
  3970                           
  3971                           ; Switch size 1, requested type "simple"
  3972                           ; Number of cases is 1, Range of values is 1 to 1
  3973                           ; switch strategies available:
  3974                           ; Name         Instructions Cycles
  3975                           ; simple_byte            4     3 (average)
  3976                           ; direct_byte           11     9 (fixed)
  3977                           ; jumptable            263     9 (fixed)
  3978                           ;	Chosen strategy is simple_byte
  3979     0324  0862               	movf	??_processLIN,w
  3980     0325  3A01               	xorlw	1	; case 1
  3981     0326  1903               	skipnz
  3982     0327  2AE0               	goto	l19
  3983     0328  2B29               	goto	l52
  3984     0329                     l52:
  3985     0329  0008               	return
  3986     032A                     __end_of_processLIN:
  3987                           
  3988                           	psect	text18
  3989     046C                     __ptext18:	
  3990 ;; *************** function _LIN_getPacket *****************
  3991 ;; Defined at:
  3992 ;;		line 202 in file "mcc_generated_files/LINDrivers/lin_slave.c"
  3993 ;; Parameters:    Size  Location     Type
  3994 ;;  data            1    wreg     PTR unsigned char 
  3995 ;;		 -> processLIN@tempRxData(8), 
  3996 ;; Auto vars:     Size  Location     Type
  3997 ;;  data            1    9[COMMON] PTR unsigned char 
  3998 ;;		 -> processLIN@tempRxData(8), 
  3999 ;;  cmd             1   10[COMMON] unsigned char 
  4000 ;; Return value:  Size  Location     Type
  4001 ;;                  1    wreg      unsigned char 
  4002 ;; Registers used:
  4003 ;;		wreg, fsr1l, fsr1h, status,2, status,0, pclath, cstack
  4004 ;; Tracked objects:
  4005 ;;		On entry : 0/0
  4006 ;;		On exit  : 0/0
  4007 ;;		Unchanged: 0/0
  4008 ;; Data sizes:     COMMON   BANK0   BANK1   BANK2   BANK3   BANK4   BANK5   BANK6
  4009 ;;      Params:         0       0       0       0       0       0       0       0
  4010 ;;      Locals:         2       0       0       0       0       0       0       0
  4011 ;;      Temps:          0       0       0       0       0       0       0       0
  4012 ;;      Totals:         2       0       0       0       0       0       0       0
  4013 ;;Total ram usage:        2 bytes
  4014 ;; Hardware stack levels used: 1
  4015 ;; Hardware stack levels required when called: 5
  4016 ;; This function calls:
  4017 ;;		_memcpy
  4018 ;;		_memset
  4019 ;; This function is called by:
  4020 ;;		_processLIN
  4021 ;; This function uses a non-reentrant model
  4022 ;;
  4023                           
  4024     046C                     _LIN_getPacket:	
  4025                           ;psect for function _LIN_getPacket
  4026                           
  4027                           
  4028                           ;incstack = 0
  4029                           ; Regs used in _LIN_getPacket: [wreg+fsr1l+fsr1h+status,2+status,0+pclath+cstack]
  4030                           ;LIN_getPacket@data stored from wreg
  4031     046C  00F9               	movwf	LIN_getPacket@data
  4032     046D                     l1812:
  4033                           
  4034                           ;mcc_generated_files/LINDrivers/lin_slave.c: 203:     uint8_t cmd = LIN_packet.PID & 0x3
      +                          F;
  4035     046D  0020               	movlb	0	; select bank0
  4036     046E  0855               	movf	_LIN_packet,w
  4037     046F  393F               	andlw	63
  4038     0470  00FA               	movwf	LIN_getPacket@cmd
  4039     0471                     l1814:
  4040                           
  4041                           ;mcc_generated_files/LINDrivers/lin_slave.c: 205:     if(cmd != 0){
  4042     0471  087A               	movf	LIN_getPacket@cmd,w
  4043     0472  1903               	btfsc	3,2
  4044     0473  2C75               	goto	u921
  4045     0474  2C76               	goto	u920
  4046     0475                     u921:
  4047     0475  2C79               	goto	l1818
  4048     0476                     u920:
  4049     0476                     l1816:
  4050                           
  4051                           ;mcc_generated_files/LINDrivers/lin_slave.c: 206:         __nop();
  4052     0476  0000               	nop
  4053                           
  4054                           ;mcc_generated_files/LINDrivers/lin_slave.c: 207:         __nop();
  4055     0477  0000               	nop
  4056                           
  4057                           ;mcc_generated_files/LINDrivers/lin_slave.c: 208:         __nop();
  4058     0478  0000               	nop
  4059     0479                     l1818:
  4060                           
  4061                           ;mcc_generated_files/LINDrivers/lin_slave.c: 211:     memcpy(data, LIN_packet.data, size
      +                          of(LIN_packet.data));
  4062     0479  3056               	movlw	(low ((_LIN_packet| 0+1)))& (0+255)
  4063     047A  00F1               	movwf	memcpy@s1
  4064     047B  3008               	movlw	8
  4065     047C  00F2               	movwf	memcpy@n
  4066     047D  3000               	movlw	0
  4067     047E  00F3               	movwf	memcpy@n+1
  4068     047F  0879               	movf	LIN_getPacket@data,w
  4069     0480  3184  2422  3184   	fcall	_memcpy
  4070                           
  4071                           ;mcc_generated_files/LINDrivers/lin_slave.c: 212:     memset(LIN_packet.rawPacket, 0, si
      +                          zeof(LIN_packet.rawPacket));
  4072     0483  3000               	movlw	0
  4073     0484  00F1               	movwf	memset@c
  4074     0485  00F2               	movwf	memset@c+1
  4075     0486  300D               	movlw	13
  4076     0487  00F3               	movwf	memset@n
  4077     0488  3000               	movlw	0
  4078     0489  00F4               	movwf	memset@n+1
  4079     048A  3055               	movlw	(low (_LIN_packet| 0))& (0+255)
  4080     048B  3184  24CC  3184   	fcall	_memset
  4081     048E                     l1820:
  4082                           
  4083                           ;mcc_generated_files/LINDrivers/lin_slave.c: 216:     return cmd;
  4084     048E  087A               	movf	LIN_getPacket@cmd,w
  4085     048F                     l173:
  4086     048F  0008               	return
  4087     0490                     __end_of_LIN_getPacket:
  4088                           
  4089                           	psect	text19
  4090     04CC                     __ptext19:	
  4091 ;; *************** function _memset *****************
  4092 ;; Defined at:
  4093 ;;		line 3 in file "C:\Program Files\Microchip\xc8\v2.45\pic\sources\c99\common\memset.c"
  4094 ;; Parameters:    Size  Location     Type
  4095 ;;  dest            1    wreg     PTR void 
  4096 ;;		 -> LIN_packet(13), 
  4097 ;;  c               2    1[COMMON] int 
  4098 ;;  n               2    3[COMMON] unsigned int 
  4099 ;; Auto vars:     Size  Location     Type
  4100 ;;  dest            1    7[COMMON] PTR void 
  4101 ;;		 -> LIN_packet(13), 
  4102 ;;  p               1    6[COMMON] PTR unsigned char 
  4103 ;;		 -> LIN_packet(13), 
  4104 ;; Return value:  Size  Location     Type
  4105 ;;                  1    wreg      PTR void 
  4106 ;; Registers used:
  4107 ;;		wreg, fsr1l, fsr1h, status,2, status,0
  4108 ;; Tracked objects:
  4109 ;;		On entry : 0/0
  4110 ;;		On exit  : 0/0
  4111 ;;		Unchanged: 0/0
  4112 ;; Data sizes:     COMMON   BANK0   BANK1   BANK2   BANK3   BANK4   BANK5   BANK6
  4113 ;;      Params:         4       0       0       0       0       0       0       0
  4114 ;;      Locals:         2       0       0       0       0       0       0       0
  4115 ;;      Temps:          1       0       0       0       0       0       0       0
  4116 ;;      Totals:         7       0       0       0       0       0       0       0
  4117 ;;Total ram usage:        7 bytes
  4118 ;; Hardware stack levels used: 1
  4119 ;; Hardware stack levels required when called: 4
  4120 ;; This function calls:
  4121 ;;		Nothing
  4122 ;; This function is called by:
  4123 ;;		_LIN_handler
  4124 ;;		_LIN_getPacket
  4125 ;; This function uses a non-reentrant model
  4126 ;;
  4127                           
  4128     04CC                     _memset:	
  4129                           ;psect for function _memset
  4130                           
  4131                           
  4132                           ;incstack = 0
  4133                           ; Regs used in _memset: [wreg+fsr1l+fsr1h+status,2+status,0]
  4134                           ;memset@dest stored from wreg
  4135     04CC  00F7               	movwf	memset@dest
  4136     04CD                     l1778:
  4137     04CD  0877               	movf	memset@dest,w
  4138     04CE  00F6               	movwf	memset@p
  4139     04CF  2CD9               	goto	l1784
  4140     04D0                     l1780:
  4141     04D0  0876               	movf	memset@p,w
  4142     04D1  0086               	movwf	6
  4143     04D2  0187               	clrf	7
  4144     04D3  0871               	movf	memset@c,w
  4145     04D4  0081               	movwf	1
  4146     04D5                     l1782:
  4147     04D5  3001               	movlw	1
  4148     04D6  00F5               	movwf	??_memset
  4149     04D7  0875               	movf	??_memset,w
  4150     04D8  07F6               	addwf	memset@p,f
  4151     04D9                     l1784:
  4152     04D9  3001               	movlw	1
  4153     04DA  02F3               	subwf	memset@n,f
  4154     04DB  3000               	movlw	0
  4155     04DC  3BF4               	subwfb	memset@n+1,f
  4156     04DD  0A73               	incf	memset@n,w
  4157     04DE  1D03               	skipz
  4158     04DF  2CE4               	goto	u881
  4159     04E0  0A74               	incf	memset@n+1,w
  4160     04E1  1D03               	btfss	3,2
  4161     04E2  2CE4               	goto	u881
  4162     04E3  2CE5               	goto	u880
  4163     04E4                     u881:
  4164     04E4  2CD0               	goto	l1780
  4165     04E5                     u880:
  4166     04E5                     l1142:
  4167     04E5  0008               	return
  4168     04E6                     __end_of_memset:
  4169                           
  4170                           	psect	text20
  4171     05F3                     __ptext20:	
  4172 ;; *************** function _LIN_stopTimer *****************
  4173 ;; Defined at:
  4174 ;;		line 312 in file "mcc_generated_files/LINDrivers/lin_slave.c"
  4175 ;; Parameters:    Size  Location     Type
  4176 ;;		None
  4177 ;; Auto vars:     Size  Location     Type
  4178 ;;		None
  4179 ;; Return value:  Size  Location     Type
  4180 ;;                  1    wreg      void 
  4181 ;; Registers used:
  4182 ;;		status,2
  4183 ;; Tracked objects:
  4184 ;;		On entry : 0/0
  4185 ;;		On exit  : 0/0
  4186 ;;		Unchanged: 0/0
  4187 ;; Data sizes:     COMMON   BANK0   BANK1   BANK2   BANK3   BANK4   BANK5   BANK6
  4188 ;;      Params:         0       0       0       0       0       0       0       0
  4189 ;;      Locals:         0       0       0       0       0       0       0       0
  4190 ;;      Temps:          0       0       0       0       0       0       0       0
  4191 ;;      Totals:         0       0       0       0       0       0       0       0
  4192 ;;Total ram usage:        0 bytes
  4193 ;; Hardware stack levels used: 1
  4194 ;; Hardware stack levels required when called: 4
  4195 ;; This function calls:
  4196 ;;		Nothing
  4197 ;; This function is called by:
  4198 ;;		_LIN_init
  4199 ;;		_LIN_handler
  4200 ;; This function uses a non-reentrant model
  4201 ;;
  4202                           
  4203     05F3                     _LIN_stopTimer:	
  4204                           ;psect for function _LIN_stopTimer
  4205                           
  4206     05F3                     l1742:	
  4207                           ;incstack = 0
  4208                           ; Regs used in _LIN_stopTimer: [status,2]
  4209                           
  4210                           
  4211                           ;mcc_generated_files/LINDrivers/lin_slave.c: 313:     __nop();
  4212     05F3  0000               	nop
  4213     05F4                     l1744:
  4214                           
  4215                           ;mcc_generated_files/LINDrivers/lin_slave.c: 315:     CountCallBack = 0;
  4216     05F4  0020               	movlb	0	; select bank0
  4217     05F5  01D1               	clrf	_CountCallBack	;volatile
  4218                           
  4219                           ;mcc_generated_files/LINDrivers/lin_slave.c: 316:     LIN_timerRunning = 0;
  4220     05F6  01D2               	clrf	_LIN_timerRunning
  4221     05F7                     l215:
  4222     05F7  0008               	return
  4223     05F8                     __end_of_LIN_stopTimer:
  4224                           
  4225                           	psect	text21
  4226     0594                     __ptext21:	
  4227 ;; *************** function _LIN_startTimer *****************
  4228 ;; Defined at:
  4229 ;;		line 291 in file "mcc_generated_files/LINDrivers/lin_slave.c"
  4230 ;; Parameters:    Size  Location     Type
  4231 ;;  timeout         1    wreg     unsigned char 
  4232 ;; Auto vars:     Size  Location     Type
  4233 ;;  timeout         1    2[COMMON] unsigned char 
  4234 ;; Return value:  Size  Location     Type
  4235 ;;                  1    wreg      void 
  4236 ;; Registers used:
  4237 ;;		wreg, status,2, status,0, pclath, cstack
  4238 ;; Tracked objects:
  4239 ;;		On entry : 0/0
  4240 ;;		On exit  : 0/0
  4241 ;;		Unchanged: 0/0
  4242 ;; Data sizes:     COMMON   BANK0   BANK1   BANK2   BANK3   BANK4   BANK5   BANK6
  4243 ;;      Params:         0       0       0       0       0       0       0       0
  4244 ;;      Locals:         1       0       0       0       0       0       0       0
  4245 ;;      Temps:          0       0       0       0       0       0       0       0
  4246 ;;      Totals:         1       0       0       0       0       0       0       0
  4247 ;;Total ram usage:        1 bytes
  4248 ;; Hardware stack levels used: 1
  4249 ;; Hardware stack levels required when called: 5
  4250 ;; This function calls:
  4251 ;;		_TMR0_WriteTimer
  4252 ;; This function is called by:
  4253 ;;		_LIN_handler
  4254 ;; This function uses a non-reentrant model
  4255 ;;
  4256                           
  4257     0594                     _LIN_startTimer:	
  4258                           ;psect for function _LIN_startTimer
  4259                           
  4260                           
  4261                           ;incstack = 0
  4262                           ; Regs used in _LIN_startTimer: [wreg+status,2+status,0+pclath+cstack]
  4263                           ;LIN_startTimer@timeout stored from wreg
  4264     0594  00F2               	movwf	LIN_startTimer@timeout
  4265     0595                     l1986:
  4266                           
  4267                           ;mcc_generated_files/LINDrivers/lin_slave.c: 292:     LIN_timeout = timeout;
  4268     0595  0872               	movf	LIN_startTimer@timeout,w
  4269     0596  0020               	movlb	0	; select bank0
  4270     0597  00ED               	movwf	_LIN_timeout
  4271     0598                     l1988:
  4272                           
  4273                           ;mcc_generated_files/LINDrivers/lin_slave.c: 293:     TMR0_WriteTimer(0);
  4274     0598  3000               	movlw	0
  4275     0599  3185  25F8  3185   	fcall	_TMR0_WriteTimer
  4276     059C                     l1990:
  4277                           
  4278                           ;mcc_generated_files/LINDrivers/lin_slave.c: 294:     __nop();
  4279     059C  0000               	nop
  4280     059D                     l1992:
  4281                           
  4282                           ;mcc_generated_files/LINDrivers/lin_slave.c: 295:     LIN_timerRunning = 1;
  4283     059D  0020               	movlb	0	; select bank0
  4284     059E  01D2               	clrf	_LIN_timerRunning
  4285     059F  0AD2               	incf	_LIN_timerRunning,f
  4286     05A0                     l205:
  4287     05A0  0008               	return
  4288     05A1                     __end_of_LIN_startTimer:
  4289                           
  4290                           	psect	text22
  4291     05F8                     __ptext22:	
  4292 ;; *************** function _TMR0_WriteTimer *****************
  4293 ;; Defined at:
  4294 ;;		line 96 in file "mcc_generated_files/tmr0.c"
  4295 ;; Parameters:    Size  Location     Type
  4296 ;;  timerVal        1    wreg     unsigned char 
  4297 ;; Auto vars:     Size  Location     Type
  4298 ;;  timerVal        1    1[COMMON] unsigned char 
  4299 ;; Return value:  Size  Location     Type
  4300 ;;                  1    wreg      void 
  4301 ;; Registers used:
  4302 ;;		wreg
  4303 ;; Tracked objects:
  4304 ;;		On entry : 0/0
  4305 ;;		On exit  : 0/0
  4306 ;;		Unchanged: 0/0
  4307 ;; Data sizes:     COMMON   BANK0   BANK1   BANK2   BANK3   BANK4   BANK5   BANK6
  4308 ;;      Params:         0       0       0       0       0       0       0       0
  4309 ;;      Locals:         1       0       0       0       0       0       0       0
  4310 ;;      Temps:          0       0       0       0       0       0       0       0
  4311 ;;      Totals:         1       0       0       0       0       0       0       0
  4312 ;;Total ram usage:        1 bytes
  4313 ;; Hardware stack levels used: 1
  4314 ;; Hardware stack levels required when called: 4
  4315 ;; This function calls:
  4316 ;;		Nothing
  4317 ;; This function is called by:
  4318 ;;		_LIN_startTimer
  4319 ;; This function uses a non-reentrant model
  4320 ;;
  4321                           
  4322     05F8                     _TMR0_WriteTimer:	
  4323                           ;psect for function _TMR0_WriteTimer
  4324                           
  4325                           
  4326                           ;incstack = 0
  4327                           ; Regs used in _TMR0_WriteTimer: [wreg]
  4328                           ;TMR0_WriteTimer@timerVal stored from wreg
  4329     05F8  00F1               	movwf	TMR0_WriteTimer@timerVal
  4330     05F9                     l1912:
  4331                           
  4332                           ;mcc_generated_files/tmr0.c: 96: void TMR0_WriteTimer(uint8_t timerVal);mcc_generated_fi
      +                          les/tmr0.c: 97: {;mcc_generated_files/tmr0.c: 99:     TMR0 = timerVal;
  4333     05F9  0871               	movf	TMR0_WriteTimer@timerVal,w
  4334     05FA  0020               	movlb	0	; select bank0
  4335     05FB  0095               	movwf	21	;volatile
  4336     05FC                     l426:
  4337     05FC  0008               	return
  4338     05FD                     __end_of_TMR0_WriteTimer:
  4339                           
  4340                           	psect	text23
  4341     0270                     __ptext23:	
  4342 ;; *************** function _LIN_queuePacket *****************
  4343 ;; Defined at:
  4344 ;;		line 66 in file "mcc_generated_files/LINDrivers/lin_slave.c"
  4345 ;; Parameters:    Size  Location     Type
  4346 ;;  cmd             1    wreg     unsigned char 
  4347 ;; Auto vars:     Size  Location     Type
  4348 ;;  cmd             1    4[BANK0 ] unsigned char 
  4349 ;;  i               1    5[BANK0 ] unsigned char 
  4350 ;;  tempSchedule    2    6[BANK0 ] PTR const struct .
  4351 ;;		 -> NULL(0), scheduleTable(4), 
  4352 ;; Return value:  Size  Location     Type
  4353 ;;                  1    wreg      void 
  4354 ;; Registers used:
  4355 ;;		wreg, fsr0l, fsr0h, fsr1l, fsr1h, status,2, status,0, pclath, cstack
  4356 ;; Tracked objects:
  4357 ;;		On entry : 0/0
  4358 ;;		On exit  : 0/0
  4359 ;;		Unchanged: 0/0
  4360 ;; Data sizes:     COMMON   BANK0   BANK1   BANK2   BANK3   BANK4   BANK5   BANK6
  4361 ;;      Params:         0       0       0       0       0       0       0       0
  4362 ;;      Locals:         0       4       0       0       0       0       0       0
  4363 ;;      Temps:          0       2       0       0       0       0       0       0
  4364 ;;      Totals:         0       6       0       0       0       0       0       0
  4365 ;;Total ram usage:        6 bytes
  4366 ;; Hardware stack levels used: 1
  4367 ;; Hardware stack levels required when called: 6
  4368 ;; This function calls:
  4369 ;;		_LIN_getChecksum
  4370 ;;		_LIN_sendPacket
  4371 ;;		_memcpy
  4372 ;; This function is called by:
  4373 ;;		_LIN_handler
  4374 ;; This function uses a non-reentrant model
  4375 ;;
  4376                           
  4377     0270                     _LIN_queuePacket:	
  4378                           ;psect for function _LIN_queuePacket
  4379                           
  4380                           
  4381                           ;incstack = 0
  4382                           ; Regs used in _LIN_queuePacket: [wreg-fsr1h+status,2+status,0+pclath+cstack]
  4383                           ;LIN_queuePacket@cmd stored from wreg
  4384     0270  0020               	movlb	0	; select bank0
  4385     0271  00E6               	movwf	LIN_queuePacket@cmd
  4386     0272                     l1958:
  4387                           
  4388                           ;mcc_generated_files/LINDrivers/lin_slave.c: 67:     const lin_rx_cmd_t* tempSchedule = 
      +                          LIN_rxCommand;
  4389     0272  0845               	movf	_LIN_rxCommand+1,w
  4390     0273  00E9               	movwf	LIN_queuePacket@tempSchedule+1
  4391     0274  0844               	movf	_LIN_rxCommand,w
  4392     0275  00E8               	movwf	LIN_queuePacket@tempSchedule
  4393     0276                     l1960:
  4394                           
  4395                           ;mcc_generated_files/LINDrivers/lin_slave.c: 69:     cmd &= 0x3F;
  4396     0276  303F               	movlw	63
  4397     0277  00E4               	movwf	??_LIN_queuePacket
  4398     0278  0864               	movf	??_LIN_queuePacket,w
  4399     0279  05E6               	andwf	LIN_queuePacket@cmd,f
  4400     027A                     l1962:
  4401                           
  4402                           ;mcc_generated_files/LINDrivers/lin_slave.c: 70:     for(uint8_t i = 0; i < LIN_rxComman
      +                          dLength; i++){
  4403     027A  01E7               	clrf	LIN_queuePacket@i
  4404     027B  2A8F               	goto	l1972
  4405     027C                     l1964:
  4406                           
  4407                           ;mcc_generated_files/LINDrivers/lin_slave.c: 71:         if(cmd == tempSchedule->cmd){
  4408     027C  0868               	movf	LIN_queuePacket@tempSchedule,w
  4409     027D  0084               	movwf	4
  4410     027E  0869               	movf	LIN_queuePacket@tempSchedule+1,w
  4411     027F  0085               	movwf	5
  4412     0280  0800               	movf	0,w	;code access
  4413     0281  0666               	xorwf	LIN_queuePacket@cmd,w
  4414     0282  1D03               	skipz
  4415     0283  2A85               	goto	u1311
  4416     0284  2A86               	goto	u1310
  4417     0285                     u1311:
  4418     0285  2A87               	goto	l1968
  4419     0286                     u1310:
  4420     0286  2A95               	goto	l1974
  4421     0287                     l1968:
  4422                           
  4423                           ;mcc_generated_files/LINDrivers/lin_slave.c: 74:         tempSchedule++;
  4424     0287  3004               	movlw	4
  4425     0288  07E8               	addwf	LIN_queuePacket@tempSchedule,f
  4426     0289  3000               	movlw	0
  4427     028A  3DE9               	addwfc	LIN_queuePacket@tempSchedule+1,f
  4428     028B                     l1970:
  4429                           
  4430                           ;mcc_generated_files/LINDrivers/lin_slave.c: 75:     }
  4431     028B  3001               	movlw	1
  4432     028C  00E4               	movwf	??_LIN_queuePacket
  4433     028D  0864               	movf	??_LIN_queuePacket,w
  4434     028E  07E7               	addwf	LIN_queuePacket@i,f
  4435     028F                     l1972:
  4436     028F  0853               	movf	_LIN_rxCommandLength,w
  4437     0290  0267               	subwf	LIN_queuePacket@i,w
  4438     0291  1C03               	skipc
  4439     0292  2A94               	goto	u1321
  4440     0293  2A95               	goto	u1320
  4441     0294                     u1321:
  4442     0294  2A7C               	goto	l1964
  4443     0295                     u1320:
  4444     0295                     l1974:
  4445                           
  4446                           ;mcc_generated_files/LINDrivers/lin_slave.c: 77:     LIN_packet.type = tempSchedule->typ
      +                          e;
  4447     0295  0869               	movf	LIN_queuePacket@tempSchedule+1,w
  4448     0296  00E5               	movwf	??_LIN_queuePacket+1
  4449     0297  0868               	movf	LIN_queuePacket@tempSchedule,w
  4450     0298  00E4               	movwf	??_LIN_queuePacket
  4451     0299  3001               	movlw	1
  4452     029A  0764               	addwf	??_LIN_queuePacket,w
  4453     029B  0084               	movwf	4
  4454     029C  0865               	movf	??_LIN_queuePacket+1,w
  4455     029D  1803               	skipnc
  4456     029E  0A65               	incf	??_LIN_queuePacket+1,w
  4457     029F  0085               	movwf	5
  4458     02A0  0800               	movf	0,w	;code access
  4459     02A1  00DF               	movwf	_LIN_packet+10
  4460                           
  4461                           ;mcc_generated_files/LINDrivers/lin_slave.c: 78:     LIN_packet.length = tempSchedule->l
      +                          ength;
  4462     02A2  0869               	movf	LIN_queuePacket@tempSchedule+1,w
  4463     02A3  00E5               	movwf	??_LIN_queuePacket+1
  4464     02A4  0868               	movf	LIN_queuePacket@tempSchedule,w
  4465     02A5  00E4               	movwf	??_LIN_queuePacket
  4466     02A6  3002               	movlw	2
  4467     02A7  0764               	addwf	??_LIN_queuePacket,w
  4468     02A8  0084               	movwf	4
  4469     02A9  0865               	movf	??_LIN_queuePacket+1,w
  4470     02AA  1803               	skipnc
  4471     02AB  0A65               	incf	??_LIN_queuePacket+1,w
  4472     02AC  0085               	movwf	5
  4473     02AD  0800               	movf	0,w	;code access
  4474     02AE  00E0               	movwf	_LIN_packet+11
  4475     02AF                     l1976:
  4476                           
  4477                           ;mcc_generated_files/LINDrivers/lin_slave.c: 82:     memcpy(LIN_packet.data, tempSchedul
      +                          e->data, LIN_packet.length);
  4478     02AF  0869               	movf	LIN_queuePacket@tempSchedule+1,w
  4479     02B0  00E5               	movwf	??_LIN_queuePacket+1
  4480     02B1  0868               	movf	LIN_queuePacket@tempSchedule,w
  4481     02B2  00E4               	movwf	??_LIN_queuePacket
  4482     02B3  3003               	movlw	3
  4483     02B4  0764               	addwf	??_LIN_queuePacket,w
  4484     02B5  0084               	movwf	4
  4485     02B6  0865               	movf	??_LIN_queuePacket+1,w
  4486     02B7  1803               	skipnc
  4487     02B8  0A65               	incf	??_LIN_queuePacket+1,w
  4488     02B9  0085               	movwf	5
  4489     02BA  0800               	movf	0,w	;code access
  4490     02BB  00F1               	movwf	memcpy@s1
  4491     02BC  0860               	movf	_LIN_packet+11,w
  4492     02BD  00F2               	movwf	memcpy@n
  4493     02BE  01F3               	clrf	memcpy@n+1
  4494     02BF  1BF2               	btfsc	memcpy@n,7
  4495     02C0  03F3               	decf	memcpy@n+1,f
  4496     02C1  3056               	movlw	(low ((_LIN_packet| 0+1)))& (0+255)
  4497     02C2  3184  2422  3182   	fcall	_memcpy
  4498     02C5                     l1978:
  4499                           
  4500                           ;mcc_generated_files/LINDrivers/lin_slave.c: 85:     LIN_packet.checksum = LIN_getChecks
      +                          um(LIN_packet.length, LIN_packet.PID, LIN_packet.data);
  4501     02C5  0020               	movlb	0	; select bank0
  4502     02C6  0855               	movf	_LIN_packet,w
  4503     02C7  00F1               	movwf	LIN_getChecksum@pid
  4504     02C8  3056               	movlw	(low ((_LIN_packet| 0+1)))& (0+255)
  4505     02C9  00F2               	movwf	LIN_getChecksum@data
  4506     02CA  0860               	movf	_LIN_packet+11,w
  4507     02CB  3183  23A1  3182   	fcall	_LIN_getChecksum
  4508     02CE  0020               	movlb	0	; select bank0
  4509     02CF  00DE               	movwf	_LIN_packet+9
  4510     02D0                     l1980:
  4511                           
  4512                           ;mcc_generated_files/LINDrivers/lin_slave.c: 86:     LIN_sendPacket(LIN_packet.length, L
      +                          IN_packet.PID, LIN_packet.data);
  4513     02D0  0855               	movf	_LIN_packet,w
  4514     02D1  00F9               	movwf	LIN_sendPacket@pid
  4515     02D2  3056               	movlw	(low ((_LIN_packet| 0+1)))& (0+255)
  4516     02D3  00FA               	movwf	LIN_sendPacket@data
  4517     02D4  0860               	movf	_LIN_packet+11,w
  4518     02D5  3184  2447  3182   	fcall	_LIN_sendPacket
  4519     02D8                     l124:
  4520     02D8  0008               	return
  4521     02D9                     __end_of_LIN_queuePacket:
  4522                           
  4523                           	psect	text24
  4524     0422                     __ptext24:	
  4525 ;; *************** function _memcpy *****************
  4526 ;; Defined at:
  4527 ;;		line 4 in file "C:\Program Files\Microchip\xc8\v2.45\pic\sources\c99\common\memcpy.c"
  4528 ;; Parameters:    Size  Location     Type
  4529 ;;  d1              1    wreg     PTR void 
  4530 ;;		 -> LIN_packet(13), processLIN@tempRxData(8), 
  4531 ;;  s1              1    1[COMMON] PTR const void 
  4532 ;;		 -> LIN_packet$data(8), LIN_packet(13), SW_STATE_Data(8), 
  4533 ;;  n               2    2[COMMON] unsigned int 
  4534 ;; Auto vars:     Size  Location     Type
  4535 ;;  d1              1    8[COMMON] PTR void 
  4536 ;;		 -> LIN_packet(13), processLIN@tempRxData(8), 
  4537 ;;  s               1    7[COMMON] PTR const unsigned char 
  4538 ;;		 -> LIN_packet$data(8), LIN_packet(13), SW_STATE_Data(8), 
  4539 ;;  d               1    6[COMMON] PTR unsigned char 
  4540 ;;		 -> LIN_packet(13), processLIN@tempRxData(8), 
  4541 ;;  tmp             1    5[COMMON] unsigned char 
  4542 ;; Return value:  Size  Location     Type
  4543 ;;                  1    wreg      PTR void 
  4544 ;; Registers used:
  4545 ;;		wreg, fsr1l, fsr1h, status,2, status,0
  4546 ;; Tracked objects:
  4547 ;;		On entry : 0/0
  4548 ;;		On exit  : 0/0
  4549 ;;		Unchanged: 0/0
  4550 ;; Data sizes:     COMMON   BANK0   BANK1   BANK2   BANK3   BANK4   BANK5   BANK6
  4551 ;;      Params:         3       0       0       0       0       0       0       0
  4552 ;;      Locals:         4       0       0       0       0       0       0       0
  4553 ;;      Temps:          1       0       0       0       0       0       0       0
  4554 ;;      Totals:         8       0       0       0       0       0       0       0
  4555 ;;Total ram usage:        8 bytes
  4556 ;; Hardware stack levels used: 1
  4557 ;; Hardware stack levels required when called: 4
  4558 ;; This function calls:
  4559 ;;		Nothing
  4560 ;; This function is called by:
  4561 ;;		_LIN_queuePacket
  4562 ;;		_LIN_getPacket
  4563 ;; This function uses a non-reentrant model
  4564 ;;
  4565                           
  4566     0422                     _memcpy:	
  4567                           ;psect for function _memcpy
  4568                           
  4569                           
  4570                           ;incstack = 0
  4571                           ; Regs used in _memcpy: [wreg+fsr1l+fsr1h+status,2+status,0]
  4572                           ;memcpy@d1 stored from wreg
  4573     0422  00F8               	movwf	memcpy@d1
  4574     0423                     l1750:
  4575     0423  0871               	movf	memcpy@s1,w
  4576     0424  00F7               	movwf	memcpy@s
  4577     0425  0878               	movf	memcpy@d1,w
  4578     0426  00F6               	movwf	memcpy@d
  4579     0427  2C3A               	goto	l1133
  4580     0428                     l1752:
  4581     0428  0877               	movf	memcpy@s,w
  4582     0429  0086               	movwf	6
  4583     042A  0187               	clrf	7
  4584     042B  0801               	movf	1,w
  4585     042C  00F5               	movwf	memcpy@tmp
  4586     042D                     l1754:
  4587     042D  3001               	movlw	1
  4588     042E  00F4               	movwf	??_memcpy
  4589     042F  0874               	movf	??_memcpy,w
  4590     0430  07F7               	addwf	memcpy@s,f
  4591     0431                     l1756:
  4592     0431  0876               	movf	memcpy@d,w
  4593     0432  0086               	movwf	6
  4594     0433  0187               	clrf	7
  4595     0434  0875               	movf	memcpy@tmp,w
  4596     0435  0081               	movwf	1
  4597     0436  3001               	movlw	1
  4598     0437  00F4               	movwf	??_memcpy
  4599     0438  0874               	movf	??_memcpy,w
  4600     0439  07F6               	addwf	memcpy@d,f
  4601     043A                     l1133:
  4602     043A  3001               	movlw	1
  4603     043B  02F2               	subwf	memcpy@n,f
  4604     043C  3000               	movlw	0
  4605     043D  3BF3               	subwfb	memcpy@n+1,f
  4606     043E  0A72               	incf	memcpy@n,w
  4607     043F  1D03               	skipz
  4608     0440  2C45               	goto	u851
  4609     0441  0A73               	incf	memcpy@n+1,w
  4610     0442  1D03               	btfss	3,2
  4611     0443  2C45               	goto	u851
  4612     0444  2C46               	goto	u850
  4613     0445                     u851:
  4614     0445  2C28               	goto	l1752
  4615     0446                     u850:
  4616     0446                     l1136:
  4617     0446  0008               	return
  4618     0447                     __end_of_memcpy:
  4619                           
  4620                           	psect	text25
  4621     0447                     __ptext25:	
  4622 ;; *************** function _LIN_sendPacket *****************
  4623 ;; Defined at:
  4624 ;;		line 192 in file "mcc_generated_files/LINDrivers/lin_slave.c"
  4625 ;; Parameters:    Size  Location     Type
  4626 ;;  length          1    wreg     unsigned char 
  4627 ;;  pid             1    9[COMMON] unsigned char 
  4628 ;;  data            1   10[COMMON] PTR unsigned char 
  4629 ;;		 -> LIN_packet(13), 
  4630 ;; Auto vars:     Size  Location     Type
  4631 ;;  length          1    0[BANK0 ] unsigned char 
  4632 ;;  i               1    1[BANK0 ] unsigned char 
  4633 ;; Return value:  Size  Location     Type
  4634 ;;                  1    wreg      void 
  4635 ;; Registers used:
  4636 ;;		wreg, fsr1l, fsr1h, status,2, status,0, pclath, cstack
  4637 ;; Tracked objects:
  4638 ;;		On entry : 0/0
  4639 ;;		On exit  : 0/0
  4640 ;;		Unchanged: 0/0
  4641 ;; Data sizes:     COMMON   BANK0   BANK1   BANK2   BANK3   BANK4   BANK5   BANK6
  4642 ;;      Params:         2       0       0       0       0       0       0       0
  4643 ;;      Locals:         0       2       0       0       0       0       0       0
  4644 ;;      Temps:          1       0       0       0       0       0       0       0
  4645 ;;      Totals:         3       2       0       0       0       0       0       0
  4646 ;;Total ram usage:        5 bytes
  4647 ;; Hardware stack levels used: 1
  4648 ;; Hardware stack levels required when called: 5
  4649 ;; This function calls:
  4650 ;;		_EUSART_Write
  4651 ;;		_LIN_getChecksum
  4652 ;; This function is called by:
  4653 ;;		_LIN_queuePacket
  4654 ;; This function uses a non-reentrant model
  4655 ;;
  4656                           
  4657     0447                     _LIN_sendPacket:	
  4658                           ;psect for function _LIN_sendPacket
  4659                           
  4660                           
  4661                           ;incstack = 0
  4662                           ; Regs used in _LIN_sendPacket: [wreg+fsr1l+fsr1h+status,2+status,0+pclath+cstack]
  4663                           ;LIN_sendPacket@length stored from wreg
  4664     0447  0020               	movlb	0	; select bank0
  4665     0448  00E2               	movwf	LIN_sendPacket@length
  4666     0449                     l1824:
  4667                           
  4668                           ;mcc_generated_files/LINDrivers/lin_slave.c: 195:     for(uint8_t i = 0; i < length; i++
      +                          ){
  4669     0449  01E3               	clrf	LIN_sendPacket@i
  4670     044A  2C5A               	goto	l1830
  4671     044B                     l1826:
  4672                           
  4673                           ;mcc_generated_files/LINDrivers/lin_slave.c: 196:         EUSART_Write(*(data + i));
  4674     044B  0863               	movf	LIN_sendPacket@i,w
  4675     044C  077A               	addwf	LIN_sendPacket@data,w
  4676     044D  00FB               	movwf	??_LIN_sendPacket
  4677     044E  087B               	movf	??_LIN_sendPacket,w
  4678     044F  0086               	movwf	6
  4679     0450  0187               	clrf	7
  4680     0451  0801               	movf	1,w
  4681     0452  3183  23D4  3184   	fcall	_EUSART_Write
  4682     0455                     l1828:
  4683                           
  4684                           ;mcc_generated_files/LINDrivers/lin_slave.c: 197:     }
  4685     0455  3001               	movlw	1
  4686     0456  00FB               	movwf	??_LIN_sendPacket
  4687     0457  087B               	movf	??_LIN_sendPacket,w
  4688     0458  0020               	movlb	0	; select bank0
  4689     0459  07E3               	addwf	LIN_sendPacket@i,f
  4690     045A                     l1830:
  4691     045A  0862               	movf	LIN_sendPacket@length,w
  4692     045B  0263               	subwf	LIN_sendPacket@i,w
  4693     045C  1C03               	skipc
  4694     045D  2C5F               	goto	u931
  4695     045E  2C60               	goto	u930
  4696     045F                     u931:
  4697     045F  2C4B               	goto	l1826
  4698     0460                     u930:
  4699     0460                     l1832:
  4700                           
  4701                           ;mcc_generated_files/LINDrivers/lin_slave.c: 199:     EUSART_Write(LIN_getChecksum(lengt
      +                          h, pid, data));
  4702     0460  0879               	movf	LIN_sendPacket@pid,w
  4703     0461  00F1               	movwf	LIN_getChecksum@pid
  4704     0462  087A               	movf	LIN_sendPacket@data,w
  4705     0463  00F2               	movwf	LIN_getChecksum@data
  4706     0464  0862               	movf	LIN_sendPacket@length,w
  4707     0465  3183  23A1  3184   	fcall	_LIN_getChecksum
  4708     0468  3183  23D4  3184   	fcall	_EUSART_Write
  4709     046B                     l169:
  4710     046B  0008               	return
  4711     046C                     __end_of_LIN_sendPacket:
  4712                           
  4713                           	psect	text26
  4714     03A1                     __ptext26:	
  4715 ;; *************** function _LIN_getChecksum *****************
  4716 ;; Defined at:
  4717 ;;		line 278 in file "mcc_generated_files/LINDrivers/lin_slave.c"
  4718 ;; Parameters:    Size  Location     Type
  4719 ;;  length          1    wreg     unsigned char 
  4720 ;;  pid             1    1[COMMON] unsigned char 
  4721 ;;  data            1    2[COMMON] PTR unsigned char 
  4722 ;;		 -> LIN_packet(13), 
  4723 ;; Auto vars:     Size  Location     Type
  4724 ;;  length          1    5[COMMON] unsigned char 
  4725 ;;  i               1    6[COMMON] unsigned char 
  4726 ;;  checksum        2    7[COMMON] unsigned short 
  4727 ;; Return value:  Size  Location     Type
  4728 ;;                  1    wreg      unsigned char 
  4729 ;; Registers used:
  4730 ;;		wreg, fsr1l, fsr1h, status,2, status,0
  4731 ;; Tracked objects:
  4732 ;;		On entry : 0/0
  4733 ;;		On exit  : 0/0
  4734 ;;		Unchanged: 0/0
  4735 ;; Data sizes:     COMMON   BANK0   BANK1   BANK2   BANK3   BANK4   BANK5   BANK6
  4736 ;;      Params:         2       0       0       0       0       0       0       0
  4737 ;;      Locals:         4       0       0       0       0       0       0       0
  4738 ;;      Temps:          2       0       0       0       0       0       0       0
  4739 ;;      Totals:         8       0       0       0       0       0       0       0
  4740 ;;Total ram usage:        8 bytes
  4741 ;; Hardware stack levels used: 1
  4742 ;; Hardware stack levels required when called: 4
  4743 ;; This function calls:
  4744 ;;		Nothing
  4745 ;; This function is called by:
  4746 ;;		_LIN_queuePacket
  4747 ;;		_LIN_handler
  4748 ;;		_LIN_sendPacket
  4749 ;; This function uses a non-reentrant model
  4750 ;;
  4751                           
  4752     03A1                     _LIN_getChecksum:	
  4753                           ;psect for function _LIN_getChecksum
  4754                           
  4755                           
  4756                           ;incstack = 0
  4757                           ; Regs used in _LIN_getChecksum: [wreg+fsr1l+fsr1h+status,2+status,0]
  4758                           ;LIN_getChecksum@length stored from wreg
  4759     03A1  00F5               	movwf	LIN_getChecksum@length
  4760     03A2                     l1758:
  4761                           
  4762                           ;mcc_generated_files/LINDrivers/lin_slave.c: 279:     uint16_t checksum = pid;
  4763     03A2  0871               	movf	LIN_getChecksum@pid,w
  4764     03A3  00F3               	movwf	??_LIN_getChecksum
  4765     03A4  01F4               	clrf	??_LIN_getChecksum+1
  4766     03A5  0873               	movf	??_LIN_getChecksum,w
  4767     03A6  00F7               	movwf	LIN_getChecksum@checksum
  4768     03A7  0874               	movf	??_LIN_getChecksum+1,w
  4769     03A8  00F8               	movwf	LIN_getChecksum@checksum+1
  4770     03A9                     l1760:
  4771                           
  4772                           ;mcc_generated_files/LINDrivers/lin_slave.c: 281:     for (uint8_t i = 0; i < length; i+
      +                          +){
  4773     03A9  01F6               	clrf	LIN_getChecksum@i
  4774     03AA  2BCA               	goto	l1772
  4775     03AB                     l1762:
  4776                           
  4777                           ;mcc_generated_files/LINDrivers/lin_slave.c: 282:         checksum = checksum + *data++;
  4778     03AB  0872               	movf	LIN_getChecksum@data,w
  4779     03AC  0086               	movwf	6
  4780     03AD  0187               	clrf	7
  4781     03AE  0801               	movf	1,w
  4782     03AF  0777               	addwf	LIN_getChecksum@checksum,w
  4783     03B0  00F7               	movwf	LIN_getChecksum@checksum
  4784     03B1  0878               	movf	LIN_getChecksum@checksum+1,w
  4785     03B2  1803               	skipnc
  4786     03B3  0A78               	incf	LIN_getChecksum@checksum+1,w
  4787     03B4  00F8               	movwf	LIN_getChecksum@checksum+1
  4788     03B5                     l1764:
  4789     03B5  3001               	movlw	1
  4790     03B6  00F3               	movwf	??_LIN_getChecksum
  4791     03B7  0873               	movf	??_LIN_getChecksum,w
  4792     03B8  07F2               	addwf	LIN_getChecksum@data,f
  4793     03B9                     l1766:
  4794                           
  4795                           ;mcc_generated_files/LINDrivers/lin_slave.c: 283:         if(checksum > 0xFF)
  4796     03B9  3001               	movlw	1
  4797     03BA  0278               	subwf	LIN_getChecksum@checksum+1,w
  4798     03BB  3000               	movlw	0
  4799     03BC  1903               	skipnz
  4800     03BD  0277               	subwf	LIN_getChecksum@checksum,w
  4801     03BE  1C03               	skipc
  4802     03BF  2BC1               	goto	u861
  4803     03C0  2BC2               	goto	u860
  4804     03C1                     u861:
  4805     03C1  2BC6               	goto	l1770
  4806     03C2                     u860:
  4807     03C2                     l1768:
  4808                           
  4809                           ;mcc_generated_files/LINDrivers/lin_slave.c: 284:             checksum -= 0xFF;
  4810     03C2  30FF               	movlw	255
  4811     03C3  02F7               	subwf	LIN_getChecksum@checksum,f
  4812     03C4  3000               	movlw	0
  4813     03C5  3BF8               	subwfb	LIN_getChecksum@checksum+1,f
  4814     03C6                     l1770:
  4815                           
  4816                           ;mcc_generated_files/LINDrivers/lin_slave.c: 285:     }
  4817     03C6  3001               	movlw	1
  4818     03C7  00F3               	movwf	??_LIN_getChecksum
  4819     03C8  0873               	movf	??_LIN_getChecksum,w
  4820     03C9  07F6               	addwf	LIN_getChecksum@i,f
  4821     03CA                     l1772:
  4822     03CA  0875               	movf	LIN_getChecksum@length,w
  4823     03CB  0276               	subwf	LIN_getChecksum@i,w
  4824     03CC  1C03               	skipc
  4825     03CD  2BCF               	goto	u871
  4826     03CE  2BD0               	goto	u870
  4827     03CF                     u871:
  4828     03CF  2BAB               	goto	l1762
  4829     03D0                     u870:
  4830     03D0                     l201:
  4831                           
  4832                           ;mcc_generated_files/LINDrivers/lin_slave.c: 286:     checksum = ~checksum;
  4833     03D0  09F7               	comf	LIN_getChecksum@checksum,f
  4834     03D1  09F8               	comf	LIN_getChecksum@checksum+1,f
  4835     03D2                     l1774:
  4836                           
  4837                           ;mcc_generated_files/LINDrivers/lin_slave.c: 288:     return (uint8_t)checksum;
  4838     03D2  0877               	movf	LIN_getChecksum@checksum,w
  4839     03D3                     l202:
  4840     03D3  0008               	return
  4841     03D4                     __end_of_LIN_getChecksum:
  4842                           
  4843                           	psect	text27
  4844     03D4                     __ptext27:	
  4845 ;; *************** function _EUSART_Write *****************
  4846 ;; Defined at:
  4847 ;;		line 173 in file "mcc_generated_files/eusart.c"
  4848 ;; Parameters:    Size  Location     Type
  4849 ;;  txData          1    wreg     unsigned char 
  4850 ;; Auto vars:     Size  Location     Type
  4851 ;;  txData          1    2[COMMON] unsigned char 
  4852 ;; Return value:  Size  Location     Type
  4853 ;;                  1    wreg      void 
  4854 ;; Registers used:
  4855 ;;		wreg, fsr1l, fsr1h, status,2, status,0
  4856 ;; Tracked objects:
  4857 ;;		On entry : 0/0
  4858 ;;		On exit  : 0/0
  4859 ;;		Unchanged: 0/0
  4860 ;; Data sizes:     COMMON   BANK0   BANK1   BANK2   BANK3   BANK4   BANK5   BANK6
  4861 ;;      Params:         0       0       0       0       0       0       0       0
  4862 ;;      Locals:         1       0       0       0       0       0       0       0
  4863 ;;      Temps:          1       0       0       0       0       0       0       0
  4864 ;;      Totals:         2       0       0       0       0       0       0       0
  4865 ;;Total ram usage:        2 bytes
  4866 ;; Hardware stack levels used: 1
  4867 ;; Hardware stack levels required when called: 4
  4868 ;; This function calls:
  4869 ;;		Nothing
  4870 ;; This function is called by:
  4871 ;;		_LIN_sendPacket
  4872 ;; This function uses a non-reentrant model
  4873 ;;
  4874                           
  4875     03D4                     _EUSART_Write:	
  4876                           ;psect for function _EUSART_Write
  4877                           
  4878                           
  4879                           ;incstack = 0
  4880                           ; Regs used in _EUSART_Write: [wreg+fsr1l+fsr1h+status,2+status,0]
  4881                           ;EUSART_Write@txData stored from wreg
  4882     03D4  00F2               	movwf	EUSART_Write@txData
  4883     03D5                     l1786:
  4884     03D5                     l1788:	
  4885                           ;mcc_generated_files/eusart.c: 173: void EUSART_Write(uint8_t txData);mcc_generated_file
      +                          s/eusart.c: 174: {;mcc_generated_files/eusart.c: 175:     while(0 == eusartTxBufferRemai
      +                          ning)
  4886                           
  4887                           
  4888                           ;mcc_generated_files/eusart.c: 175:     while(0 == eusartTxBufferRemaining)
  4889     03D5  0020               	movlb	0	; select bank0
  4890     03D6  084C               	movf	_eusartTxBufferRemaining,w	;volatile
  4891     03D7  1903               	btfsc	3,2
  4892     03D8  2BDA               	goto	u891
  4893     03D9  2BDB               	goto	u890
  4894     03DA                     u891:
  4895     03DA  2BD5               	goto	l1788
  4896     03DB                     u890:
  4897     03DB                     l358:
  4898                           
  4899                           ;mcc_generated_files/eusart.c: 179:     if(0 == PIE1bits.TXIE)
  4900     03DB  0021               	movlb	1	; select bank1
  4901     03DC  1A11               	btfsc	17,4	;volatile
  4902     03DD  2BDF               	goto	u901
  4903     03DE  2BE0               	goto	u900
  4904     03DF                     u901:
  4905     03DF  2BE4               	goto	l359
  4906     03E0                     u900:
  4907     03E0                     l1790:
  4908                           
  4909                           ;mcc_generated_files/eusart.c: 180:     {;mcc_generated_files/eusart.c: 181:         TXR
      +                          EG = txData;
  4910     03E0  0872               	movf	EUSART_Write@txData,w
  4911     03E1  0023               	movlb	3	; select bank3
  4912     03E2  009A               	movwf	26	;volatile
  4913                           
  4914                           ;mcc_generated_files/eusart.c: 182:     }
  4915     03E3  2BF9               	goto	l1802
  4916     03E4                     l359:	
  4917                           ;mcc_generated_files/eusart.c: 183:     else
  4918                           
  4919                           
  4920                           ;mcc_generated_files/eusart.c: 184:     {;mcc_generated_files/eusart.c: 185:         PIE
      +                          1bits.TXIE = 0;
  4921     03E4  1211               	bcf	17,4	;volatile
  4922     03E5                     l1792:
  4923                           
  4924                           ;mcc_generated_files/eusart.c: 186:         eusartTxBuffer[eusartTxHead++] = txData;
  4925     03E5  0020               	movlb	0	; select bank0
  4926     03E6  084E               	movf	_eusartTxHead,w
  4927     03E7  3E30               	addlw	(low (_eusartTxBuffer| 0))& (0+255)
  4928     03E8  0086               	movwf	6
  4929     03E9  0187               	clrf	7
  4930     03EA  0872               	movf	EUSART_Write@txData,w
  4931     03EB  0081               	movwf	1
  4932     03EC                     l1794:
  4933     03EC  3001               	movlw	1
  4934     03ED  00F1               	movwf	??_EUSART_Write
  4935     03EE  0871               	movf	??_EUSART_Write,w
  4936     03EF  07CE               	addwf	_eusartTxHead,f	;volatile
  4937     03F0                     l1796:
  4938                           
  4939                           ;mcc_generated_files/eusart.c: 187:         if(sizeof(eusartTxBuffer) <= eusartTxHead)
  4940     03F0  3008               	movlw	8
  4941     03F1  024E               	subwf	_eusartTxHead,w	;volatile
  4942     03F2  1C03               	skipc
  4943     03F3  2BF5               	goto	u911
  4944     03F4  2BF6               	goto	u910
  4945     03F5                     u911:
  4946     03F5  2BF7               	goto	l1800
  4947     03F6                     u910:
  4948     03F6                     l1798:
  4949                           
  4950                           ;mcc_generated_files/eusart.c: 188:         {;mcc_generated_files/eusart.c: 189:        
      +                               eusartTxHead = 0;
  4951     03F6  01CE               	clrf	_eusartTxHead	;volatile
  4952     03F7                     l1800:
  4953                           
  4954                           ;mcc_generated_files/eusart.c: 191:         eusartTxBufferRemaining--;
  4955     03F7  3001               	movlw	1
  4956     03F8  02CC               	subwf	_eusartTxBufferRemaining,f	;volatile
  4957     03F9                     l1802:
  4958                           
  4959                           ;mcc_generated_files/eusart.c: 193:     PIE1bits.TXIE = 1;
  4960     03F9  0021               	movlb	1	; select bank1
  4961     03FA  1611               	bsf	17,4	;volatile
  4962     03FB                     l362:
  4963     03FB  0008               	return
  4964     03FC                     __end_of_EUSART_Write:
  4965                           
  4966                           	psect	text28
  4967     05FD                     __ptext28:	
  4968 ;; *************** function _LIN_enableRx *****************
  4969 ;; Defined at:
  4970 ;;		line 319 in file "mcc_generated_files/LINDrivers/lin_slave.c"
  4971 ;; Parameters:    Size  Location     Type
  4972 ;;		None
  4973 ;; Auto vars:     Size  Location     Type
  4974 ;;		None
  4975 ;; Return value:  Size  Location     Type
  4976 ;;                  1    wreg      void 
  4977 ;; Registers used:
  4978 ;;		None
  4979 ;; Tracked objects:
  4980 ;;		On entry : 0/0
  4981 ;;		On exit  : 0/0
  4982 ;;		Unchanged: 0/0
  4983 ;; Data sizes:     COMMON   BANK0   BANK1   BANK2   BANK3   BANK4   BANK5   BANK6
  4984 ;;      Params:         0       0       0       0       0       0       0       0
  4985 ;;      Locals:         0       0       0       0       0       0       0       0
  4986 ;;      Temps:          0       0       0       0       0       0       0       0
  4987 ;;      Totals:         0       0       0       0       0       0       0       0
  4988 ;;Total ram usage:        0 bytes
  4989 ;; Hardware stack levels used: 1
  4990 ;; Hardware stack levels required when called: 4
  4991 ;; This function calls:
  4992 ;;		Nothing
  4993 ;; This function is called by:
  4994 ;;		_LIN_init
  4995 ;;		_LIN_handler
  4996 ;; This function uses a non-reentrant model
  4997 ;;
  4998                           
  4999     05FD                     _LIN_enableRx:	
  5000                           ;psect for function _LIN_enableRx
  5001                           
  5002     05FD                     l1746:	
  5003                           ;incstack = 0
  5004                           ; Regs used in _LIN_enableRx: []
  5005                           
  5006                           
  5007                           ;mcc_generated_files/LINDrivers/lin_slave.c: 320:     RCSTAbits.CREN = 1;
  5008     05FD  0023               	movlb	3	; select bank3
  5009     05FE  161D               	bsf	29,4	;volatile
  5010                           
  5011                           ;mcc_generated_files/LINDrivers/lin_slave.c: 321:     PIE1bits.RCIE = 1;
  5012     05FF  0021               	movlb	1	; select bank1
  5013     0600  1691               	bsf	17,5	;volatile
  5014     0601                     l218:
  5015     0601  0008               	return
  5016     0602                     __end_of_LIN_enableRx:
  5017                           
  5018                           	psect	text29
  5019     0602                     __ptext29:	
  5020 ;; *************** function _LIN_disableRx *****************
  5021 ;; Defined at:
  5022 ;;		line 324 in file "mcc_generated_files/LINDrivers/lin_slave.c"
  5023 ;; Parameters:    Size  Location     Type
  5024 ;;		None
  5025 ;; Auto vars:     Size  Location     Type
  5026 ;;		None
  5027 ;; Return value:  Size  Location     Type
  5028 ;;                  1    wreg      void 
  5029 ;; Registers used:
  5030 ;;		None
  5031 ;; Tracked objects:
  5032 ;;		On entry : 0/0
  5033 ;;		On exit  : 0/0
  5034 ;;		Unchanged: 0/0
  5035 ;; Data sizes:     COMMON   BANK0   BANK1   BANK2   BANK3   BANK4   BANK5   BANK6
  5036 ;;      Params:         0       0       0       0       0       0       0       0
  5037 ;;      Locals:         0       0       0       0       0       0       0       0
  5038 ;;      Temps:          0       0       0       0       0       0       0       0
  5039 ;;      Totals:         0       0       0       0       0       0       0       0
  5040 ;;Total ram usage:        0 bytes
  5041 ;; Hardware stack levels used: 1
  5042 ;; Hardware stack levels required when called: 4
  5043 ;; This function calls:
  5044 ;;		Nothing
  5045 ;; This function is called by:
  5046 ;;		_LIN_handler
  5047 ;; This function uses a non-reentrant model
  5048 ;;
  5049                           
  5050     0602                     _LIN_disableRx:	
  5051                           ;psect for function _LIN_disableRx
  5052                           
  5053     0602                     l2022:	
  5054                           ;incstack = 0
  5055                           ; Regs used in _LIN_disableRx: []
  5056                           
  5057                           
  5058                           ;mcc_generated_files/LINDrivers/lin_slave.c: 325:     RCSTAbits.CREN = 0;
  5059     0602  0023               	movlb	3	; select bank3
  5060     0603  121D               	bcf	29,4	;volatile
  5061                           
  5062                           ;mcc_generated_files/LINDrivers/lin_slave.c: 326:     PIE1bits.RCIE = 0;
  5063     0604  0021               	movlb	1	; select bank1
  5064     0605  1291               	bcf	17,5	;volatile
  5065     0606                     l221:
  5066     0606  0008               	return
  5067     0607                     __end_of_LIN_disableRx:
  5068                           
  5069                           	psect	text30
  5070     04E6                     __ptext30:	
  5071 ;; *************** function _LIN_checkPID *****************
  5072 ;; Defined at:
  5073 ;;		line 249 in file "mcc_generated_files/LINDrivers/lin_slave.c"
  5074 ;; Parameters:    Size  Location     Type
  5075 ;;  pid             1    wreg     unsigned char 
  5076 ;; Auto vars:     Size  Location     Type
  5077 ;;  pid             1    8[COMMON] unsigned char 
  5078 ;; Return value:  Size  Location     Type
  5079 ;;                  1    wreg      _Bool 
  5080 ;; Registers used:
  5081 ;;		wreg, fsr0l, fsr0h, status,2, status,0, pclath, cstack
  5082 ;; Tracked objects:
  5083 ;;		On entry : 0/0
  5084 ;;		On exit  : 0/0
  5085 ;;		Unchanged: 0/0
  5086 ;; Data sizes:     COMMON   BANK0   BANK1   BANK2   BANK3   BANK4   BANK5   BANK6
  5087 ;;      Params:         0       0       0       0       0       0       0       0
  5088 ;;      Locals:         1       0       0       0       0       0       0       0
  5089 ;;      Temps:          0       0       0       0       0       0       0       0
  5090 ;;      Totals:         1       0       0       0       0       0       0       0
  5091 ;;Total ram usage:        1 bytes
  5092 ;; Hardware stack levels used: 1
  5093 ;; Hardware stack levels required when called: 5
  5094 ;; This function calls:
  5095 ;;		_LIN_calcParity
  5096 ;;		_LIN_getFromTable
  5097 ;; This function is called by:
  5098 ;;		_LIN_handler
  5099 ;; This function uses a non-reentrant model
  5100 ;;
  5101                           
  5102     04E6                     _LIN_checkPID:	
  5103                           ;psect for function _LIN_checkPID
  5104                           
  5105                           
  5106                           ;incstack = 0
  5107                           ; Regs used in _LIN_checkPID: [wreg-fsr0h+status,2+status,0+pclath+cstack]
  5108                           ;LIN_checkPID@pid stored from wreg
  5109     04E6  00F8               	movwf	LIN_checkPID@pid
  5110     04E7                     l2006:
  5111                           
  5112                           ;mcc_generated_files/LINDrivers/lin_slave.c: 250:     if(LIN_getFromTable(pid, TYPE) == 
      +                          ERROR)
  5113     04E7  01F1               	clrf	LIN_getFromTable@param
  5114     04E8  0AF1               	incf	LIN_getFromTable@param,f
  5115     04E9  0878               	movf	LIN_checkPID@pid,w
  5116     04EA  3182  2206  3184   	fcall	_LIN_getFromTable
  5117     04ED  3A02               	xorlw	2
  5118     04EE  1D03               	skipz
  5119     04EF  2CF1               	goto	u1371
  5120     04F0  2CF2               	goto	u1370
  5121     04F1                     u1371:
  5122     04F1  2CF4               	goto	l2012
  5123     04F2                     u1370:
  5124     04F2                     l2008:
  5125                           
  5126                           ;mcc_generated_files/LINDrivers/lin_slave.c: 251:         return 0;
  5127     04F2  3000               	movlw	0
  5128     04F3  2CFF               	goto	l191
  5129     04F4                     l2012:
  5130                           
  5131                           ;mcc_generated_files/LINDrivers/lin_slave.c: 253:     if(pid == LIN_calcParity(pid & 0x3
      +                          F))
  5132     04F4  0878               	movf	LIN_checkPID@pid,w
  5133     04F5  393F               	andlw	63
  5134     04F6  3181  2180  3184   	fcall	_LIN_calcParity
  5135     04F9  0678               	xorwf	LIN_checkPID@pid,w
  5136     04FA  1D03               	skipz
  5137     04FB  2CFD               	goto	u1381
  5138     04FC  2CFE               	goto	u1380
  5139     04FD                     u1381:
  5140     04FD  2CF2               	goto	l2008
  5141     04FE                     u1380:
  5142     04FE                     l2014:
  5143                           
  5144                           ;mcc_generated_files/LINDrivers/lin_slave.c: 254:         return 1;
  5145     04FE  3001               	movlw	1
  5146     04FF                     l191:
  5147     04FF  0008               	return
  5148     0500                     __end_of_LIN_checkPID:
  5149                           
  5150                           	psect	text31
  5151     0206                     __ptext31:	
  5152 ;; *************** function _LIN_getFromTable *****************
  5153 ;; Defined at:
  5154 ;;		line 219 in file "mcc_generated_files/LINDrivers/lin_slave.c"
  5155 ;; Parameters:    Size  Location     Type
  5156 ;;  cmd             1    wreg     unsigned char 
  5157 ;;  param           1    1[COMMON] enum E221
  5158 ;; Auto vars:     Size  Location     Type
  5159 ;;  cmd             1    4[COMMON] unsigned char 
  5160 ;;  length          1    5[COMMON] unsigned char 
  5161 ;;  rxCommand       2    6[COMMON] PTR const struct .
  5162 ;;		 -> NULL(0), scheduleTable(4), 
  5163 ;; Return value:  Size  Location     Type
  5164 ;;                  1    wreg      unsigned char 
  5165 ;; Registers used:
  5166 ;;		wreg, fsr0l, fsr0h, status,2, status,0, pclath
  5167 ;; Tracked objects:
  5168 ;;		On entry : 0/0
  5169 ;;		On exit  : 0/0
  5170 ;;		Unchanged: 0/0
  5171 ;; Data sizes:     COMMON   BANK0   BANK1   BANK2   BANK3   BANK4   BANK5   BANK6
  5172 ;;      Params:         1       0       0       0       0       0       0       0
  5173 ;;      Locals:         4       0       0       0       0       0       0       0
  5174 ;;      Temps:          2       0       0       0       0       0       0       0
  5175 ;;      Totals:         7       0       0       0       0       0       0       0
  5176 ;;Total ram usage:        7 bytes
  5177 ;; Hardware stack levels used: 1
  5178 ;; Hardware stack levels required when called: 4
  5179 ;; This function calls:
  5180 ;;		Nothing
  5181 ;; This function is called by:
  5182 ;;		_LIN_handler
  5183 ;;		_LIN_checkPID
  5184 ;; This function uses a non-reentrant model
  5185 ;;
  5186                           
  5187     0206                     _LIN_getFromTable:	
  5188                           ;psect for function _LIN_getFromTable
  5189                           
  5190                           
  5191                           ;incstack = 0
  5192                           ; Regs used in _LIN_getFromTable: [wreg-fsr0h+status,2+status,0+pclath]
  5193                           ;LIN_getFromTable@cmd stored from wreg
  5194     0206  00F4               	movwf	LIN_getFromTable@cmd
  5195     0207                     l1856:
  5196                           
  5197                           ;mcc_generated_files/LINDrivers/lin_slave.c: 220:     const lin_rx_cmd_t* rxCommand = LI
      +                          N_rxCommand;
  5198     0207  0020               	movlb	0	; select bank0
  5199     0208  0845               	movf	_LIN_rxCommand+1,w
  5200     0209  00F7               	movwf	LIN_getFromTable@rxCommand+1
  5201     020A  0844               	movf	_LIN_rxCommand,w
  5202     020B  00F6               	movwf	LIN_getFromTable@rxCommand
  5203     020C                     l1858:
  5204                           
  5205                           ;mcc_generated_files/LINDrivers/lin_slave.c: 222:     cmd &= 0x3F;
  5206     020C  303F               	movlw	63
  5207     020D  00F2               	movwf	??_LIN_getFromTable
  5208     020E  0872               	movf	??_LIN_getFromTable,w
  5209     020F  05F4               	andwf	LIN_getFromTable@cmd,f
  5210     0210                     l1860:
  5211                           
  5212                           ;mcc_generated_files/LINDrivers/lin_slave.c: 224:     for(uint8_t length = 0; length < L
      +                          IN_rxCommandLength; length++){
  5213     0210  01F5               	clrf	LIN_getFromTable@length
  5214     0211  2A35               	goto	l1874
  5215     0212                     l1862:
  5216                           
  5217                           ;mcc_generated_files/LINDrivers/lin_slave.c: 225:         if(cmd == rxCommand->cmd){
  5218     0212  0876               	movf	LIN_getFromTable@rxCommand,w
  5219     0213  0084               	movwf	4
  5220     0214  0877               	movf	LIN_getFromTable@rxCommand+1,w
  5221     0215  0085               	movwf	5
  5222     0216  0800               	movf	0,w	;code access
  5223     0217  0674               	xorwf	LIN_getFromTable@cmd,w
  5224     0218  1D03               	skipz
  5225     0219  2A1B               	goto	u961
  5226     021A  2A1C               	goto	u960
  5227     021B                     u961:
  5228     021B  2A1D               	goto	l1866
  5229     021C                     u960:
  5230     021C  2A5C               	goto	l1890
  5231     021D                     l1866:
  5232                           
  5233                           ;mcc_generated_files/LINDrivers/lin_slave.c: 228:         rxCommand++;
  5234     021D  3004               	movlw	4
  5235     021E  07F6               	addwf	LIN_getFromTable@rxCommand,f
  5236     021F  3000               	movlw	0
  5237     0220  3DF7               	addwfc	LIN_getFromTable@rxCommand+1,f
  5238                           
  5239                           ;mcc_generated_files/LINDrivers/lin_slave.c: 230:         if(length == (LIN_rxCommandLen
      +                          gth-1)){
  5240     0221  0853               	movf	_LIN_rxCommandLength,w
  5241     0222  3EFF               	addlw	255
  5242     0223  00F2               	movwf	??_LIN_getFromTable
  5243     0224  30FF               	movlw	255
  5244     0225  1803               	skipnc
  5245     0226  3000               	movlw	0
  5246     0227  00F3               	movwf	??_LIN_getFromTable+1
  5247     0228  0875               	movf	LIN_getFromTable@length,w
  5248     0229  0672               	xorwf	??_LIN_getFromTable,w
  5249     022A  0473               	iorwf	??_LIN_getFromTable+1,w
  5250     022B  1D03               	skipz
  5251     022C  2A2E               	goto	u971
  5252     022D  2A2F               	goto	u970
  5253     022E                     u971:
  5254     022E  2A31               	goto	l1872
  5255     022F                     u970:
  5256     022F                     l1868:
  5257                           
  5258                           ;mcc_generated_files/LINDrivers/lin_slave.c: 231:             return ERROR;
  5259     022F  3002               	movlw	2
  5260     0230  2A6F               	goto	l181
  5261     0231                     l1872:
  5262                           
  5263                           ;mcc_generated_files/LINDrivers/lin_slave.c: 233:     }
  5264     0231  3001               	movlw	1
  5265     0232  00F2               	movwf	??_LIN_getFromTable
  5266     0233  0872               	movf	??_LIN_getFromTable,w
  5267     0234  07F5               	addwf	LIN_getFromTable@length,f
  5268     0235                     l1874:
  5269     0235  0853               	movf	_LIN_rxCommandLength,w
  5270     0236  0275               	subwf	LIN_getFromTable@length,w
  5271     0237  1C03               	skipc
  5272     0238  2A3A               	goto	u981
  5273     0239  2A3B               	goto	u980
  5274     023A                     u981:
  5275     023A  2A12               	goto	l1862
  5276     023B                     u980:
  5277     023B  2A5C               	goto	l1890
  5278     023C                     l1876:
  5279                           
  5280                           ;mcc_generated_files/LINDrivers/lin_slave.c: 237:             return rxCommand->cmd;
  5281     023C  0876               	movf	LIN_getFromTable@rxCommand,w
  5282     023D  0084               	movwf	4
  5283     023E  0877               	movf	LIN_getFromTable@rxCommand+1,w
  5284     023F  0085               	movwf	5
  5285     0240  0800               	movf	0,w	;code access
  5286     0241  2A6F               	goto	l181
  5287     0242                     l1880:
  5288                           
  5289                           ;mcc_generated_files/LINDrivers/lin_slave.c: 239:             return rxCommand->type;
  5290     0242  0877               	movf	LIN_getFromTable@rxCommand+1,w
  5291     0243  00F3               	movwf	??_LIN_getFromTable+1
  5292     0244  0876               	movf	LIN_getFromTable@rxCommand,w
  5293     0245  00F2               	movwf	??_LIN_getFromTable
  5294     0246  3001               	movlw	1
  5295     0247  0772               	addwf	??_LIN_getFromTable,w
  5296     0248  0084               	movwf	4
  5297     0249  0873               	movf	??_LIN_getFromTable+1,w
  5298     024A  1803               	skipnc
  5299     024B  0A73               	incf	??_LIN_getFromTable+1,w
  5300     024C  0085               	movwf	5
  5301     024D  0800               	movf	0,w	;code access
  5302     024E  2A6F               	goto	l181
  5303     024F                     l1884:
  5304                           
  5305                           ;mcc_generated_files/LINDrivers/lin_slave.c: 241:             return rxCommand->length;
  5306     024F  0877               	movf	LIN_getFromTable@rxCommand+1,w
  5307     0250  00F3               	movwf	??_LIN_getFromTable+1
  5308     0251  0876               	movf	LIN_getFromTable@rxCommand,w
  5309     0252  00F2               	movwf	??_LIN_getFromTable
  5310     0253  3002               	movlw	2
  5311     0254  0772               	addwf	??_LIN_getFromTable,w
  5312     0255  0084               	movwf	4
  5313     0256  0873               	movf	??_LIN_getFromTable+1,w
  5314     0257  1803               	skipnc
  5315     0258  0A73               	incf	??_LIN_getFromTable+1,w
  5316     0259  0085               	movwf	5
  5317     025A  0800               	movf	0,w	;code access
  5318     025B  2A6F               	goto	l181
  5319     025C                     l1890:
  5320     025C  0871               	movf	LIN_getFromTable@param,w
  5321     025D  00F2               	movwf	??_LIN_getFromTable
  5322     025E  01F3               	clrf	??_LIN_getFromTable+1
  5323                           
  5324                           ; Switch on 2 bytes has been partitioned into a top level switch of size 1, and 1 sub-sw
      +                          itches
  5325                           ; Switch size 1, requested type "simple"
  5326                           ; Number of cases is 1, Range of values is 0 to 0
  5327                           ; switch strategies available:
  5328                           ; Name         Instructions Cycles
  5329                           ; simple_byte            4     3 (average)
  5330                           ; direct_byte            8     6 (fixed)
  5331                           ; jumptable            260     6 (fixed)
  5332                           ;	Chosen strategy is simple_byte
  5333     025F  0873               	movf	??_LIN_getFromTable+1,w
  5334     0260  3A00               	xorlw	0	; case 0
  5335     0261  1903               	skipnz
  5336     0262  2A64               	goto	l2542
  5337     0263  2A2F               	goto	l1868
  5338     0264                     l2542:
  5339                           
  5340                           ; Switch size 1, requested type "simple"
  5341                           ; Number of cases is 3, Range of values is 0 to 2
  5342                           ; switch strategies available:
  5343                           ; Name         Instructions Cycles
  5344                           ; simple_byte           10     6 (average)
  5345                           ; direct_byte           12     6 (fixed)
  5346                           ; jumptable            260     6 (fixed)
  5347                           ;	Chosen strategy is simple_byte
  5348     0264  0872               	movf	??_LIN_getFromTable,w
  5349     0265  3A00               	xorlw	0	; case 0
  5350     0266  1903               	skipnz
  5351     0267  2A3C               	goto	l1876
  5352     0268  3A01               	xorlw	1	; case 1
  5353     0269  1903               	skipnz
  5354     026A  2A42               	goto	l1880
  5355     026B  3A03               	xorlw	3	; case 2
  5356     026C  1903               	skipnz
  5357     026D  2A4F               	goto	l1884
  5358     026E  2A2F               	goto	l1868
  5359     026F                     l181:
  5360     026F  0008               	return
  5361     0270                     __end_of_LIN_getFromTable:
  5362                           
  5363                           	psect	text32
  5364     0180                     __ptext32:	
  5365 ;; *************** function _LIN_calcParity *****************
  5366 ;; Defined at:
  5367 ;;		line 260 in file "mcc_generated_files/LINDrivers/lin_slave.c"
  5368 ;; Parameters:    Size  Location     Type
  5369 ;;  CMD             1    wreg     unsigned char 
  5370 ;; Auto vars:     Size  Location     Type
  5371 ;;  CMD             1    2[COMMON] unsigned char 
  5372 ;;  PID             1    3[COMMON] struct .
  5373 ;; Return value:  Size  Location     Type
  5374 ;;                  1    wreg      unsigned char 
  5375 ;; Registers used:
  5376 ;;		wreg, status,0
  5377 ;; Tracked objects:
  5378 ;;		On entry : 0/0
  5379 ;;		On exit  : 0/0
  5380 ;;		Unchanged: 0/0
  5381 ;; Data sizes:     COMMON   BANK0   BANK1   BANK2   BANK3   BANK4   BANK5   BANK6
  5382 ;;      Params:         0       0       0       0       0       0       0       0
  5383 ;;      Locals:         2       0       0       0       0       0       0       0
  5384 ;;      Temps:          1       0       0       0       0       0       0       0
  5385 ;;      Totals:         3       0       0       0       0       0       0       0
  5386 ;;Total ram usage:        3 bytes
  5387 ;; Hardware stack levels used: 1
  5388 ;; Hardware stack levels required when called: 4
  5389 ;; This function calls:
  5390 ;;		Nothing
  5391 ;; This function is called by:
  5392 ;;		_LIN_checkPID
  5393 ;; This function uses a non-reentrant model
  5394 ;;
  5395                           
  5396     0180                     _LIN_calcParity:	
  5397                           ;psect for function _LIN_calcParity
  5398                           
  5399                           
  5400                           ;incstack = 0
  5401                           ; Regs used in _LIN_calcParity: [wreg+status,0]
  5402                           ;LIN_calcParity@CMD stored from wreg
  5403     0180  00F2               	movwf	LIN_calcParity@CMD
  5404     0181                     l1904:
  5405                           
  5406                           ;mcc_generated_files/LINDrivers/lin_slave.c: 261:     lin_pid_t PID;;mcc_generated_files
      +                          /LINDrivers/lin_slave.c: 262:     PID.rawPID = CMD;
  5407     0181  0872               	movf	LIN_calcParity@CMD,w
  5408     0182  00F3               	movwf	LIN_calcParity@PID
  5409                           
  5410                           ;mcc_generated_files/LINDrivers/lin_slave.c: 267:     PID.P0 = PID.ID0 ^ PID.ID1;
  5411     0183  18F3               	btfsc	LIN_calcParity@PID,1
  5412     0184  2986               	goto	u991
  5413     0185  2988               	goto	u990
  5414     0186                     u991:
  5415     0186  3001               	movlw	1
  5416     0187  2989               	goto	u992
  5417     0188                     u990:
  5418     0188  3000               	movlw	0
  5419     0189                     u992:
  5420     0189  00F1               	movwf	??_LIN_calcParity
  5421     018A  1873               	btfsc	LIN_calcParity@PID,0
  5422     018B  298D               	goto	u1001
  5423     018C  298F               	goto	u1000
  5424     018D                     u1001:
  5425     018D  3001               	movlw	1
  5426     018E  2990               	goto	u1002
  5427     018F                     u1000:
  5428     018F  3000               	movlw	0
  5429     0190                     u1002:
  5430     0190  0671               	xorwf	??_LIN_calcParity,w
  5431     0191  1D03               	skipz
  5432     0192  2994               	goto	u1011
  5433     0193  2996               	goto	u1010
  5434     0194                     u1011:
  5435     0194  1773               	bsf	LIN_calcParity@PID,6
  5436     0195  2997               	goto	u1024
  5437     0196                     u1010:
  5438     0196  1373               	bcf	LIN_calcParity@PID,6
  5439     0197                     u1024:
  5440                           
  5441                           ;mcc_generated_files/LINDrivers/lin_slave.c: 268:     PID.P0 = PID.P0 ^ PID.ID2;
  5442     0197  1973               	btfsc	LIN_calcParity@PID,2
  5443     0198  299A               	goto	u1031
  5444     0199  299C               	goto	u1030
  5445     019A                     u1031:
  5446     019A  3001               	movlw	1
  5447     019B  299D               	goto	u1032
  5448     019C                     u1030:
  5449     019C  3000               	movlw	0
  5450     019D                     u1032:
  5451     019D  00F1               	movwf	??_LIN_calcParity
  5452     019E  1B73               	btfsc	LIN_calcParity@PID,6
  5453     019F  29A1               	goto	u1041
  5454     01A0  29A3               	goto	u1040
  5455     01A1                     u1041:
  5456     01A1  3001               	movlw	1
  5457     01A2  29A4               	goto	u1042
  5458     01A3                     u1040:
  5459     01A3  3000               	movlw	0
  5460     01A4                     u1042:
  5461     01A4  0671               	xorwf	??_LIN_calcParity,w
  5462     01A5  1D03               	skipz
  5463     01A6  29A8               	goto	u1051
  5464     01A7  29AA               	goto	u1050
  5465     01A8                     u1051:
  5466     01A8  1773               	bsf	LIN_calcParity@PID,6
  5467     01A9  29AB               	goto	u1064
  5468     01AA                     u1050:
  5469     01AA  1373               	bcf	LIN_calcParity@PID,6
  5470     01AB                     u1064:
  5471                           
  5472                           ;mcc_generated_files/LINDrivers/lin_slave.c: 269:     PID.P0 = PID.P0 ^ PID.ID4;
  5473     01AB  1A73               	btfsc	LIN_calcParity@PID,4
  5474     01AC  29AE               	goto	u1071
  5475     01AD  29B0               	goto	u1070
  5476     01AE                     u1071:
  5477     01AE  3001               	movlw	1
  5478     01AF  29B1               	goto	u1072
  5479     01B0                     u1070:
  5480     01B0  3000               	movlw	0
  5481     01B1                     u1072:
  5482     01B1  00F1               	movwf	??_LIN_calcParity
  5483     01B2  1B73               	btfsc	LIN_calcParity@PID,6
  5484     01B3  29B5               	goto	u1081
  5485     01B4  29B7               	goto	u1080
  5486     01B5                     u1081:
  5487     01B5  3001               	movlw	1
  5488     01B6  29B8               	goto	u1082
  5489     01B7                     u1080:
  5490     01B7  3000               	movlw	0
  5491     01B8                     u1082:
  5492     01B8  0671               	xorwf	??_LIN_calcParity,w
  5493     01B9  1D03               	skipz
  5494     01BA  29BC               	goto	u1091
  5495     01BB  29BE               	goto	u1090
  5496     01BC                     u1091:
  5497     01BC  1773               	bsf	LIN_calcParity@PID,6
  5498     01BD  29BF               	goto	u1104
  5499     01BE                     u1090:
  5500     01BE  1373               	bcf	LIN_calcParity@PID,6
  5501     01BF                     u1104:
  5502                           
  5503                           ;mcc_generated_files/LINDrivers/lin_slave.c: 270:     PID.P1 = PID.ID1 ^ PID.ID3;
  5504     01BF  19F3               	btfsc	LIN_calcParity@PID,3
  5505     01C0  29C2               	goto	u1111
  5506     01C1  29C4               	goto	u1110
  5507     01C2                     u1111:
  5508     01C2  3001               	movlw	1
  5509     01C3  29C5               	goto	u1112
  5510     01C4                     u1110:
  5511     01C4  3000               	movlw	0
  5512     01C5                     u1112:
  5513     01C5  00F1               	movwf	??_LIN_calcParity
  5514     01C6  18F3               	btfsc	LIN_calcParity@PID,1
  5515     01C7  29C9               	goto	u1121
  5516     01C8  29CB               	goto	u1120
  5517     01C9                     u1121:
  5518     01C9  3001               	movlw	1
  5519     01CA  29CC               	goto	u1122
  5520     01CB                     u1120:
  5521     01CB  3000               	movlw	0
  5522     01CC                     u1122:
  5523     01CC  0671               	xorwf	??_LIN_calcParity,w
  5524     01CD  1D03               	skipz
  5525     01CE  29D0               	goto	u1131
  5526     01CF  29D2               	goto	u1130
  5527     01D0                     u1131:
  5528     01D0  17F3               	bsf	LIN_calcParity@PID,7
  5529     01D1  29D3               	goto	u1144
  5530     01D2                     u1130:
  5531     01D2  13F3               	bcf	LIN_calcParity@PID,7
  5532     01D3                     u1144:
  5533                           
  5534                           ;mcc_generated_files/LINDrivers/lin_slave.c: 271:     PID.P1 = PID.P1 ^ PID.ID4;
  5535     01D3  1A73               	btfsc	LIN_calcParity@PID,4
  5536     01D4  29D6               	goto	u1151
  5537     01D5  29D8               	goto	u1150
  5538     01D6                     u1151:
  5539     01D6  3001               	movlw	1
  5540     01D7  29D9               	goto	u1152
  5541     01D8                     u1150:
  5542     01D8  3000               	movlw	0
  5543     01D9                     u1152:
  5544     01D9  00F1               	movwf	??_LIN_calcParity
  5545     01DA  1BF3               	btfsc	LIN_calcParity@PID,7
  5546     01DB  29DD               	goto	u1161
  5547     01DC  29DF               	goto	u1160
  5548     01DD                     u1161:
  5549     01DD  3001               	movlw	1
  5550     01DE  29E0               	goto	u1162
  5551     01DF                     u1160:
  5552     01DF  3000               	movlw	0
  5553     01E0                     u1162:
  5554     01E0  0671               	xorwf	??_LIN_calcParity,w
  5555     01E1  1D03               	skipz
  5556     01E2  29E4               	goto	u1171
  5557     01E3  29E6               	goto	u1170
  5558     01E4                     u1171:
  5559     01E4  17F3               	bsf	LIN_calcParity@PID,7
  5560     01E5  29E7               	goto	u1184
  5561     01E6                     u1170:
  5562     01E6  13F3               	bcf	LIN_calcParity@PID,7
  5563     01E7                     u1184:
  5564                           
  5565                           ;mcc_generated_files/LINDrivers/lin_slave.c: 272:     PID.P1 = PID.P1 ^ PID.ID5;
  5566     01E7  1AF3               	btfsc	LIN_calcParity@PID,5
  5567     01E8  29EA               	goto	u1191
  5568     01E9  29EC               	goto	u1190
  5569     01EA                     u1191:
  5570     01EA  3001               	movlw	1
  5571     01EB  29ED               	goto	u1192
  5572     01EC                     u1190:
  5573     01EC  3000               	movlw	0
  5574     01ED                     u1192:
  5575     01ED  00F1               	movwf	??_LIN_calcParity
  5576     01EE  1BF3               	btfsc	LIN_calcParity@PID,7
  5577     01EF  29F1               	goto	u1201
  5578     01F0  29F3               	goto	u1200
  5579     01F1                     u1201:
  5580     01F1  3001               	movlw	1
  5581     01F2  29F4               	goto	u1202
  5582     01F3                     u1200:
  5583     01F3  3000               	movlw	0
  5584     01F4                     u1202:
  5585     01F4  0671               	xorwf	??_LIN_calcParity,w
  5586     01F5  1D03               	skipz
  5587     01F6  29F8               	goto	u1211
  5588     01F7  29FA               	goto	u1210
  5589     01F8                     u1211:
  5590     01F8  17F3               	bsf	LIN_calcParity@PID,7
  5591     01F9  29FB               	goto	u1224
  5592     01FA                     u1210:
  5593     01FA  13F3               	bcf	LIN_calcParity@PID,7
  5594     01FB                     u1224:
  5595     01FB                     l1906:
  5596                           
  5597                           ;mcc_generated_files/LINDrivers/lin_slave.c: 273:     PID.P1 = ~PID.P1;
  5598     01FB  1003               	clrc
  5599     01FC  1FF3               	btfss	LIN_calcParity@PID,7
  5600     01FD  1403               	setc
  5601     01FE  1803               	btfsc	3,0
  5602     01FF  2A01               	goto	u1231
  5603     0200  2A03               	goto	u1230
  5604     0201                     u1231:
  5605     0201  17F3               	bsf	LIN_calcParity@PID,7
  5606     0202  2A04               	goto	u1244
  5607     0203                     u1230:
  5608     0203  13F3               	bcf	LIN_calcParity@PID,7
  5609     0204                     u1244:
  5610     0204                     l1908:
  5611                           
  5612                           ;mcc_generated_files/LINDrivers/lin_slave.c: 275:     return PID.rawPID;
  5613     0204  0873               	movf	LIN_calcParity@PID,w
  5614     0205                     l195:
  5615     0205  0008               	return
  5616     0206                     __end_of_LIN_calcParity:
  5617                           
  5618                           	psect	text33
  5619     0555                     __ptext33:	
  5620 ;; *************** function _LIN_breakCheck *****************
  5621 ;; Defined at:
  5622 ;;		line 329 in file "mcc_generated_files/LINDrivers/lin_slave.c"
  5623 ;; Parameters:    Size  Location     Type
  5624 ;;		None
  5625 ;; Auto vars:     Size  Location     Type
  5626 ;;		None
  5627 ;; Return value:  Size  Location     Type
  5628 ;;                  1    wreg      _Bool 
  5629 ;; Registers used:
  5630 ;;		wreg, fsr1l, fsr1h, status,2, status,0, pclath, cstack
  5631 ;; Tracked objects:
  5632 ;;		On entry : 0/0
  5633 ;;		On exit  : 0/0
  5634 ;;		Unchanged: 0/0
  5635 ;; Data sizes:     COMMON   BANK0   BANK1   BANK2   BANK3   BANK4   BANK5   BANK6
  5636 ;;      Params:         0       0       0       0       0       0       0       0
  5637 ;;      Locals:         0       0       0       0       0       0       0       0
  5638 ;;      Temps:          0       0       0       0       0       0       0       0
  5639 ;;      Totals:         0       0       0       0       0       0       0       0
  5640 ;;Total ram usage:        0 bytes
  5641 ;; Hardware stack levels used: 1
  5642 ;; Hardware stack levels required when called: 5
  5643 ;; This function calls:
  5644 ;;		_EUSART_Read
  5645 ;;		_EUSART_get_last_status
  5646 ;; This function is called by:
  5647 ;;		_LIN_handler
  5648 ;; This function uses a non-reentrant model
  5649 ;;
  5650                           
  5651     0555                     _LIN_breakCheck:	
  5652                           ;psect for function _LIN_breakCheck
  5653                           
  5654     0555                     l1994:	
  5655                           ;incstack = 0
  5656                           ; Regs used in _LIN_breakCheck: [wreg+fsr1l+fsr1h+status,2+status,0+pclath+cstack]
  5657                           
  5658                           
  5659                           ;mcc_generated_files/LINDrivers/lin_slave.c: 331:     if((EUSART_Read() == 0x00) && (EUS
      +                          ART_get_last_status().ferr == 1)){
  5660     0555  3183  23FC  3185   	fcall	_EUSART_Read
  5661     0558  3A00               	xorlw	0
  5662     0559  1D03               	skipz
  5663     055A  2D5C               	goto	u1351
  5664     055B  2D5D               	goto	u1350
  5665     055C                     u1351:
  5666     055C  2D66               	goto	l2002
  5667     055D                     u1350:
  5668     055D                     l1996:
  5669     055D  3186  261C  3185   	fcall	_EUSART_get_last_status
  5670     0560  1C89               	btfss	9,1
  5671     0561  2D63               	goto	u1361
  5672     0562  2D64               	goto	u1360
  5673     0563                     u1361:
  5674     0563  2D66               	goto	l2002
  5675     0564                     u1360:
  5676     0564                     l1998:
  5677                           
  5678                           ;mcc_generated_files/LINDrivers/lin_slave.c: 332:         return 1;
  5679     0564  3001               	movlw	1
  5680     0565  2D67               	goto	l225
  5681     0566                     l2002:
  5682                           
  5683                           ;mcc_generated_files/LINDrivers/lin_slave.c: 335:     return 0;
  5684     0566  3000               	movlw	0
  5685     0567                     l225:
  5686     0567  0008               	return
  5687     0568                     __end_of_LIN_breakCheck:
  5688                           
  5689                           	psect	text34
  5690     061C                     __ptext34:	
  5691 ;; *************** function _EUSART_get_last_status *****************
  5692 ;; Defined at:
  5693 ;;		line 147 in file "mcc_generated_files/eusart.c"
  5694 ;; Parameters:    Size  Location     Type
  5695 ;;		None
  5696 ;; Auto vars:     Size  Location     Type
  5697 ;;		None
  5698 ;; Return value:  Size  Location     Type
  5699 ;;                  1    wreg      struct .
  5700 ;; Registers used:
  5701 ;;		wreg
  5702 ;; Tracked objects:
  5703 ;;		On entry : 0/0
  5704 ;;		On exit  : 0/0
  5705 ;;		Unchanged: 0/0
  5706 ;; Data sizes:     COMMON   BANK0   BANK1   BANK2   BANK3   BANK4   BANK5   BANK6
  5707 ;;      Params:         0       0       0       0       0       0       0       0
  5708 ;;      Locals:         0       0       0       0       0       0       0       0
  5709 ;;      Temps:          0       0       0       0       0       0       0       0
  5710 ;;      Totals:         0       0       0       0       0       0       0       0
  5711 ;;Total ram usage:        0 bytes
  5712 ;; Hardware stack levels used: 1
  5713 ;; Hardware stack levels required when called: 4
  5714 ;; This function calls:
  5715 ;;		Nothing
  5716 ;; This function is called by:
  5717 ;;		_LIN_breakCheck
  5718 ;; This function uses a non-reentrant model
  5719 ;;
  5720                           
  5721     061C                     _EUSART_get_last_status:	
  5722                           ;psect for function _EUSART_get_last_status
  5723                           
  5724     061C                     l1914:	
  5725                           ;incstack = 0
  5726                           ; Regs used in _EUSART_get_last_status: [wreg]
  5727                           
  5728                           
  5729                           ;mcc_generated_files/eusart.c: 148:     return eusartRxLastError;
  5730     061C  0020               	movlb	0	; select bank0
  5731     061D  0849               	movf	_eusartRxLastError,w	;volatile
  5732     061E                     l346:
  5733     061E  0008               	return
  5734     061F                     __end_of_EUSART_get_last_status:
  5735                           
  5736                           	psect	text35
  5737     03FC                     __ptext35:	
  5738 ;; *************** function _EUSART_Read *****************
  5739 ;; Defined at:
  5740 ;;		line 151 in file "mcc_generated_files/eusart.c"
  5741 ;; Parameters:    Size  Location     Type
  5742 ;;		None
  5743 ;; Auto vars:     Size  Location     Type
  5744 ;;  readValue       1    2[COMMON] unsigned char 
  5745 ;; Return value:  Size  Location     Type
  5746 ;;                  1    wreg      unsigned char 
  5747 ;; Registers used:
  5748 ;;		wreg, fsr1l, fsr1h, status,2, status,0
  5749 ;; Tracked objects:
  5750 ;;		On entry : 0/0
  5751 ;;		On exit  : 0/0
  5752 ;;		Unchanged: 0/0
  5753 ;; Data sizes:     COMMON   BANK0   BANK1   BANK2   BANK3   BANK4   BANK5   BANK6
  5754 ;;      Params:         0       0       0       0       0       0       0       0
  5755 ;;      Locals:         1       0       0       0       0       0       0       0
  5756 ;;      Temps:          1       0       0       0       0       0       0       0
  5757 ;;      Totals:         2       0       0       0       0       0       0       0
  5758 ;;Total ram usage:        2 bytes
  5759 ;; Hardware stack levels used: 1
  5760 ;; Hardware stack levels required when called: 4
  5761 ;; This function calls:
  5762 ;;		Nothing
  5763 ;; This function is called by:
  5764 ;;		_LIN_handler
  5765 ;;		_LIN_breakCheck
  5766 ;; This function uses a non-reentrant model
  5767 ;;
  5768                           
  5769     03FC                     _EUSART_Read:	
  5770                           ;psect for function _EUSART_Read
  5771                           
  5772     03FC                     l1834:	
  5773                           ;incstack = 0
  5774                           ; Regs used in _EUSART_Read: [wreg+fsr1l+fsr1h+status,2+status,0]
  5775                           
  5776     03FC                     l1836:	
  5777                           ;mcc_generated_files/eusart.c: 155:     while(0 == eusartRxCount)
  5778                           
  5779                           
  5780                           ;mcc_generated_files/eusart.c: 155:     while(0 == eusartRxCount)
  5781     03FC  0020               	movlb	0	; select bank0
  5782     03FD  084A               	movf	_eusartRxCount,w	;volatile
  5783     03FE  1903               	btfsc	3,2
  5784     03FF  2C01               	goto	u941
  5785     0400  2C02               	goto	u940
  5786     0401                     u941:
  5787     0401  2BFC               	goto	l1836
  5788     0402                     u940:
  5789     0402                     l1838:
  5790                           
  5791                           ;mcc_generated_files/eusart.c: 159:     eusartRxLastError = eusartRxStatusBuffer[eusartR
      +                          xTail];
  5792     0402  084B               	movf	_eusartRxTail,w	;volatile
  5793     0403  3E20               	addlw	(low (_eusartRxStatusBuffer| 0))& (0+255)
  5794     0404  0086               	movwf	6
  5795     0405  0187               	clrf	7
  5796     0406  0801               	movf	1,w
  5797     0407  00C9               	movwf	_eusartRxLastError	;volatile
  5798                           
  5799                           ;mcc_generated_files/eusart.c: 161:     readValue = eusartRxBuffer[eusartRxTail++];
  5800     0408  084B               	movf	_eusartRxTail,w
  5801     0409  3E28               	addlw	(low (_eusartRxBuffer| 0))& (0+255)
  5802     040A  0086               	movwf	6
  5803     040B  0187               	clrf	7
  5804     040C  0801               	movf	1,w
  5805     040D  00F2               	movwf	EUSART_Read@readValue
  5806     040E                     l1840:
  5807     040E  3001               	movlw	1
  5808     040F  00F1               	movwf	??_EUSART_Read
  5809     0410  0871               	movf	??_EUSART_Read,w
  5810     0411  07CB               	addwf	_eusartRxTail,f	;volatile
  5811     0412                     l1842:
  5812                           
  5813                           ;mcc_generated_files/eusart.c: 162:     if(sizeof(eusartRxBuffer) <= eusartRxTail)
  5814     0412  3008               	movlw	8
  5815     0413  024B               	subwf	_eusartRxTail,w	;volatile
  5816     0414  1C03               	skipc
  5817     0415  2C17               	goto	u951
  5818     0416  2C18               	goto	u950
  5819     0417                     u951:
  5820     0417  2C19               	goto	l1846
  5821     0418                     u950:
  5822     0418                     l1844:
  5823                           
  5824                           ;mcc_generated_files/eusart.c: 163:     {;mcc_generated_files/eusart.c: 164:         eus
      +                          artRxTail = 0;
  5825     0418  01CB               	clrf	_eusartRxTail	;volatile
  5826     0419                     l1846:
  5827                           
  5828                           ;mcc_generated_files/eusart.c: 166:     PIE1bits.RCIE = 0;
  5829     0419  0021               	movlb	1	; select bank1
  5830     041A  1291               	bcf	17,5	;volatile
  5831     041B                     l1848:
  5832                           
  5833                           ;mcc_generated_files/eusart.c: 167:     eusartRxCount--;
  5834     041B  3001               	movlw	1
  5835     041C  0020               	movlb	0	; select bank0
  5836     041D  02CA               	subwf	_eusartRxCount,f	;volatile
  5837     041E                     l1850:
  5838                           
  5839                           ;mcc_generated_files/eusart.c: 168:     PIE1bits.RCIE = 1;
  5840     041E  0021               	movlb	1	; select bank1
  5841     041F  1691               	bsf	17,5	;volatile
  5842     0420                     l1852:
  5843                           
  5844                           ;mcc_generated_files/eusart.c: 170:     return readValue;
  5845     0420  0872               	movf	EUSART_Read@readValue,w
  5846     0421                     l353:
  5847     0421  0008               	return
  5848     0422                     __end_of_EUSART_Read:
  5849                           
  5850                           	psect	text36
  5851     05B8                     __ptext36:	
  5852 ;; *************** function _EUSART_is_rx_ready *****************
  5853 ;; Defined at:
  5854 ;;		line 137 in file "mcc_generated_files/eusart.c"
  5855 ;; Parameters:    Size  Location     Type
  5856 ;;		None
  5857 ;; Auto vars:     Size  Location     Type
  5858 ;;		None
  5859 ;; Return value:  Size  Location     Type
  5860 ;;                  1    wreg      _Bool 
  5861 ;; Registers used:
  5862 ;;		wreg, status,2, status,0
  5863 ;; Tracked objects:
  5864 ;;		On entry : 0/0
  5865 ;;		On exit  : 0/0
  5866 ;;		Unchanged: 0/0
  5867 ;; Data sizes:     COMMON   BANK0   BANK1   BANK2   BANK3   BANK4   BANK5   BANK6
  5868 ;;      Params:         0       0       0       0       0       0       0       0
  5869 ;;      Locals:         0       0       0       0       0       0       0       0
  5870 ;;      Temps:          0       0       0       0       0       0       0       0
  5871 ;;      Totals:         0       0       0       0       0       0       0       0
  5872 ;;Total ram usage:        0 bytes
  5873 ;; Hardware stack levels used: 1
  5874 ;; Hardware stack levels required when called: 4
  5875 ;; This function calls:
  5876 ;;		Nothing
  5877 ;; This function is called by:
  5878 ;;		_LIN_handler
  5879 ;; This function uses a non-reentrant model
  5880 ;;
  5881                           
  5882     05B8                     _EUSART_is_rx_ready:	
  5883                           ;psect for function _EUSART_is_rx_ready
  5884                           
  5885     05B8                     l1982:	
  5886                           ;incstack = 0
  5887                           ; Regs used in _EUSART_is_rx_ready: [wreg+status,2+status,0]
  5888                           
  5889                           
  5890                           ;mcc_generated_files/eusart.c: 139:     return (eusartRxCount ? 1 : 0);
  5891     05B8  0020               	movlb	0	; select bank0
  5892     05B9  084A               	movf	_eusartRxCount,w	;volatile
  5893     05BA  1D03               	btfss	3,2
  5894     05BB  2DBD               	goto	u1331
  5895     05BC  2DBF               	goto	u1330
  5896     05BD                     u1331:
  5897     05BD  3001               	movlw	1
  5898     05BE  2DC0               	goto	u1340
  5899     05BF                     u1330:
  5900     05BF  3000               	movlw	0
  5901     05C0                     u1340:
  5902     05C0                     l340:
  5903     05C0  0008               	return
  5904     05C1                     __end_of_EUSART_is_rx_ready:
  5905                           
  5906                           	psect	intentry
  5907     0004                     __pintentry:	
  5908 ;; *************** function _INTERRUPT_InterruptManager *****************
  5909 ;; Defined at:
  5910 ;;		line 52 in file "mcc_generated_files/interrupt_manager.c"
  5911 ;; Parameters:    Size  Location     Type
  5912 ;;		None
  5913 ;; Auto vars:     Size  Location     Type
  5914 ;;		None
  5915 ;; Return value:  Size  Location     Type
  5916 ;;                  1    wreg      void 
  5917 ;; Registers used:
  5918 ;;		wreg, fsr1l, fsr1h, status,2, status,0, pclath, cstack
  5919 ;; Tracked objects:
  5920 ;;		On entry : 0/0
  5921 ;;		On exit  : 0/0
  5922 ;;		Unchanged: 0/0
  5923 ;; Data sizes:     COMMON   BANK0   BANK1   BANK2   BANK3   BANK4   BANK5   BANK6
  5924 ;;      Params:         0       0       0       0       0       0       0       0
  5925 ;;      Locals:         0       0       0       0       0       0       0       0
  5926 ;;      Temps:          0       0       0       0       0       0       0       0
  5927 ;;      Totals:         0       0       0       0       0       0       0       0
  5928 ;;Total ram usage:        0 bytes
  5929 ;; Hardware stack levels used: 1
  5930 ;; Hardware stack levels required when called: 3
  5931 ;; This function calls:
  5932 ;;		NULL
  5933 ;;		_EUSART_Receive_ISR
  5934 ;;		_EUSART_Transmit_ISR
  5935 ;;		_TMR0_ISR
  5936 ;; This function is called by:
  5937 ;;		Interrupt level 1
  5938 ;; This function uses a non-reentrant model
  5939 ;;
  5940                           
  5941     0004                     _INTERRUPT_InterruptManager:
  5942                           
  5943                           ;incstack = 0
  5944     0004  147E               	bsf	int$flags,0	;set compiler interrupt flag (level 1)
  5945                           
  5946                           ; Regs used in _INTERRUPT_InterruptManager: [wreg+fsr1l+fsr1h+status,2+status,0+pclath+c
      +                          stack]
  5947     0005  3180               	pagesel	$
  5948     0006                     i1l2218:
  5949                           
  5950                           ;mcc_generated_files/interrupt_manager.c: 55:     if(INTCONbits.TMR0IE == 1 && INTCONbit
      +                          s.TMR0IF == 1)
  5951     0006  1E8B               	btfss	11,5	;volatile
  5952     0007  2809               	goto	u161_21
  5953     0008  280A               	goto	u161_20
  5954     0009                     u161_21:
  5955     0009  2812               	goto	i1l460
  5956     000A                     u161_20:
  5957     000A                     i1l2220:
  5958     000A  1D0B               	btfss	11,2	;volatile
  5959     000B  280D               	goto	u162_21
  5960     000C  280E               	goto	u162_20
  5961     000D                     u162_21:
  5962     000D  2812               	goto	i1l460
  5963     000E                     u162_20:
  5964     000E                     i1l2222:
  5965                           
  5966                           ;mcc_generated_files/interrupt_manager.c: 56:     {;mcc_generated_files/interrupt_manage
      +                          r.c: 57:         TMR0_ISR();
  5967     000E  3185  2568  3180   	fcall	_TMR0_ISR
  5968                           
  5969                           ;mcc_generated_files/interrupt_manager.c: 58:     }
  5970     0011  2836               	goto	i1l468
  5971     0012                     i1l460:	
  5972                           ;mcc_generated_files/interrupt_manager.c: 59:     else if(INTCONbits.PEIE == 1)
  5973                           
  5974     0012  1F0B               	btfss	11,6	;volatile
  5975     0013  2815               	goto	u163_21
  5976     0014  2816               	goto	u163_20
  5977     0015                     u163_21:
  5978     0015  2836               	goto	i1l468
  5979     0016                     u163_20:
  5980     0016                     i1l2224:
  5981                           
  5982                           ;mcc_generated_files/interrupt_manager.c: 60:     {;mcc_generated_files/interrupt_manage
      +                          r.c: 61:         if(PIE1bits.TXIE == 1 && PIR1bits.TXIF == 1)
  5983     0016  0021               	movlb	1	; select bank1
  5984     0017  1E11               	btfss	17,4	;volatile
  5985     0018  281A               	goto	u164_21
  5986     0019  281B               	goto	u164_20
  5987     001A                     u164_21:
  5988     001A  2826               	goto	i1l463
  5989     001B                     u164_20:
  5990     001B                     i1l2226:
  5991     001B  0020               	movlb	0	; select bank0
  5992     001C  1E11               	btfss	17,4	;volatile
  5993     001D  281F               	goto	u165_21
  5994     001E  2820               	goto	u165_20
  5995     001F                     u165_21:
  5996     001F  2826               	goto	i1l463
  5997     0020                     u165_20:
  5998     0020                     i1l2228:
  5999                           
  6000                           ;mcc_generated_files/interrupt_manager.c: 62:         {;mcc_generated_files/interrupt_ma
      +                          nager.c: 63:             EUSART_TxDefaultInterruptHandler();
  6001     0020  0843               	movf	_EUSART_TxDefaultInterruptHandler+1,w
  6002     0021  008A               	movwf	10
  6003     0022  0842               	movf	_EUSART_TxDefaultInterruptHandler,w
  6004     0023  000A               	callw
  6005     0024  3180               	pagesel	$
  6006                           
  6007                           ;mcc_generated_files/interrupt_manager.c: 64:         }
  6008     0025  2836               	goto	i1l468
  6009     0026                     i1l463:	
  6010                           ;mcc_generated_files/interrupt_manager.c: 65:         else if(PIE1bits.RCIE == 1 && PIR1
      +                          bits.RCIF == 1)
  6011                           
  6012     0026  0021               	movlb	1	; select bank1
  6013     0027  1E91               	btfss	17,5	;volatile
  6014     0028  282A               	goto	u166_21
  6015     0029  282B               	goto	u166_20
  6016     002A                     u166_21:
  6017     002A  2836               	goto	i1l467
  6018     002B                     u166_20:
  6019     002B                     i1l2230:
  6020     002B  0020               	movlb	0	; select bank0
  6021     002C  1E91               	btfss	17,5	;volatile
  6022     002D  282F               	goto	u167_21
  6023     002E  2830               	goto	u167_20
  6024     002F                     u167_21:
  6025     002F  2836               	goto	i1l467
  6026     0030                     u167_20:
  6027     0030                     i1l2232:
  6028                           
  6029                           ;mcc_generated_files/interrupt_manager.c: 66:         {;mcc_generated_files/interrupt_ma
      +                          nager.c: 67:             EUSART_RxDefaultInterruptHandler();
  6030     0030  0841               	movf	_EUSART_RxDefaultInterruptHandler+1,w
  6031     0031  008A               	movwf	10
  6032     0032  0840               	movf	_EUSART_RxDefaultInterruptHandler,w
  6033     0033  000A               	callw
  6034     0034  3180               	pagesel	$
  6035                           
  6036                           ;mcc_generated_files/interrupt_manager.c: 68:         }
  6037     0035  2836               	goto	i1l468
  6038     0036                     i1l467:	
  6039                           ;mcc_generated_files/interrupt_manager.c: 75:     {;mcc_generated_files/interrupt_manage
      +                          r.c: 77:     }
  6040                           
  6041     0036                     i1l468:
  6042     0036  107E               	bcf	int$flags,0	;clear compiler interrupt flag (level 1)
  6043     0037  0009               	retfie
  6044     0038                     __end_of_INTERRUPT_InterruptManager:
  6045                           
  6046                           	psect	text38
  6047     0568                     __ptext38:	
  6048 ;; *************** function _TMR0_ISR *****************
  6049 ;; Defined at:
  6050 ;;		line 108 in file "mcc_generated_files/tmr0.c"
  6051 ;; Parameters:    Size  Location     Type
  6052 ;;		None
  6053 ;; Auto vars:     Size  Location     Type
  6054 ;;		None
  6055 ;; Return value:  Size  Location     Type
  6056 ;;                  1    wreg      void 
  6057 ;; Registers used:
  6058 ;;		wreg, status,2, status,0, pclath, cstack
  6059 ;; Tracked objects:
  6060 ;;		On entry : 0/0
  6061 ;;		On exit  : 0/0
  6062 ;;		Unchanged: 0/0
  6063 ;; Data sizes:     COMMON   BANK0   BANK1   BANK2   BANK3   BANK4   BANK5   BANK6
  6064 ;;      Params:         0       0       0       0       0       0       0       0
  6065 ;;      Locals:         0       0       0       0       0       0       0       0
  6066 ;;      Temps:          0       0       0       0       0       0       0       0
  6067 ;;      Totals:         0       0       0       0       0       0       0       0
  6068 ;;Total ram usage:        0 bytes
  6069 ;; Hardware stack levels used: 1
  6070 ;; Hardware stack levels required when called: 2
  6071 ;; This function calls:
  6072 ;;		NULL
  6073 ;;		_LIN_timerHandler
  6074 ;;		_TMR0_DefaultInterruptHandler
  6075 ;; This function is called by:
  6076 ;;		_INTERRUPT_InterruptManager
  6077 ;; This function uses a non-reentrant model
  6078 ;;
  6079                           
  6080     0568                     _TMR0_ISR:	
  6081                           ;psect for function _TMR0_ISR
  6082                           
  6083     0568                     i1l2206:	
  6084                           ;incstack = 0
  6085                           ; Regs used in _TMR0_ISR: [wreg+status,2+status,0+pclath+cstack]
  6086                           
  6087                           
  6088                           ;mcc_generated_files/tmr0.c: 112:     INTCONbits.TMR0IF = 0;
  6089     0568  110B               	bcf	11,2	;volatile
  6090     0569                     i1l2208:
  6091                           
  6092                           ;mcc_generated_files/tmr0.c: 114:     TMR0 = timer0ReloadVal;
  6093     0569  0020               	movlb	0	; select bank0
  6094     056A  0848               	movf	_timer0ReloadVal,w	;volatile
  6095     056B  0095               	movwf	21	;volatile
  6096     056C                     i1l2210:
  6097                           
  6098                           ;mcc_generated_files/tmr0.c: 116:     if(TMR0_InterruptHandler)
  6099     056C  0838               	movf	_TMR0_InterruptHandler,w
  6100     056D  0439               	iorwf	_TMR0_InterruptHandler+1,w
  6101     056E  1903               	btfsc	3,2
  6102     056F  2D71               	goto	u160_21
  6103     0570  2D72               	goto	u160_20
  6104     0571                     u160_21:
  6105     0571  2D77               	goto	i1l433
  6106     0572                     u160_20:
  6107     0572                     i1l2212:
  6108                           
  6109                           ;mcc_generated_files/tmr0.c: 117:     {;mcc_generated_files/tmr0.c: 118:         TMR0_In
      +                          terruptHandler();
  6110     0572  0839               	movf	_TMR0_InterruptHandler+1,w
  6111     0573  008A               	movwf	10
  6112     0574  0838               	movf	_TMR0_InterruptHandler,w
  6113     0575  000A               	callw
  6114     0576  3185               	pagesel	$
  6115     0577                     i1l433:
  6116     0577  0008               	return
  6117     0578                     __end_of_TMR0_ISR:
  6118                           
  6119                           	psect	text39
  6120     0578                     __ptext39:	
  6121 ;; *************** function _LIN_timerHandler *****************
  6122 ;; Defined at:
  6123 ;;		line 298 in file "mcc_generated_files/LINDrivers/lin_slave.c"
  6124 ;; Parameters:    Size  Location     Type
  6125 ;;		None
  6126 ;; Auto vars:     Size  Location     Type
  6127 ;;		None
  6128 ;; Return value:  Size  Location     Type
  6129 ;;                  1    wreg      void 
  6130 ;; Registers used:
  6131 ;;		wreg, status,2, status,0, pclath, cstack
  6132 ;; Tracked objects:
  6133 ;;		On entry : 0/0
  6134 ;;		On exit  : 0/0
  6135 ;;		Unchanged: 0/0
  6136 ;; Data sizes:     COMMON   BANK0   BANK1   BANK2   BANK3   BANK4   BANK5   BANK6
  6137 ;;      Params:         0       0       0       0       0       0       0       0
  6138 ;;      Locals:         0       0       0       0       0       0       0       0
  6139 ;;      Temps:          1       0       0       0       0       0       0       0
  6140 ;;      Totals:         1       0       0       0       0       0       0       0
  6141 ;;Total ram usage:        1 bytes
  6142 ;; Hardware stack levels used: 1
  6143 ;; Hardware stack levels required when called: 1
  6144 ;; This function calls:
  6145 ;;		i1_LIN_stopTimer
  6146 ;; This function is called by:
  6147 ;;		_LIN_setTimerHandler
  6148 ;;		_TMR0_ISR
  6149 ;; This function uses a non-reentrant model
  6150 ;;
  6151                           
  6152     0578                     _LIN_timerHandler:	
  6153                           ;psect for function _LIN_timerHandler
  6154                           
  6155     0578                     i1l2024:	
  6156                           ;incstack = 0
  6157                           ; Regs used in _LIN_timerHandler: [wreg+status,2+status,0+pclath+cstack]
  6158                           
  6159                           
  6160                           ;mcc_generated_files/LINDrivers/lin_slave.c: 301:     if (++CountCallBack >= LIN_timeout
      +                          )
  6161     0578  3001               	movlw	1
  6162     0579  00F0               	movwf	??_LIN_timerHandler
  6163     057A  0870               	movf	??_LIN_timerHandler,w
  6164     057B  0020               	movlb	0	; select bank0
  6165     057C  07D1               	addwf	_CountCallBack,f	;volatile
  6166     057D  086D               	movf	_LIN_timeout,w
  6167     057E  0251               	subwf	_CountCallBack,w	;volatile
  6168     057F  1C03               	skipc
  6169     0580  2D82               	goto	u139_21
  6170     0581  2D83               	goto	u139_20
  6171     0582                     u139_21:
  6172     0582  2D86               	goto	i1l209
  6173     0583                     u139_20:
  6174     0583                     i1l2026:
  6175                           
  6176                           ;mcc_generated_files/LINDrivers/lin_slave.c: 302:     {;mcc_generated_files/LINDrivers/l
      +                          in_slave.c: 304:         LIN_stopTimer();
  6177     0583  3186  2607  3185   	fcall	i1_LIN_stopTimer
  6178     0586                     i1l209:
  6179     0586  0008               	return
  6180     0587                     __end_of_LIN_timerHandler:
  6181                           
  6182                           	psect	text40
  6183     0620                     __ptext40:	
  6184 ;; *************** function _TMR0_DefaultInterruptHandler *****************
  6185 ;; Defined at:
  6186 ;;		line 129 in file "mcc_generated_files/tmr0.c"
  6187 ;; Parameters:    Size  Location     Type
  6188 ;;		None
  6189 ;; Auto vars:     Size  Location     Type
  6190 ;;		None
  6191 ;; Return value:  Size  Location     Type
  6192 ;;                  1    wreg      void 
  6193 ;; Registers used:
  6194 ;;		None
  6195 ;; Tracked objects:
  6196 ;;		On entry : 0/0
  6197 ;;		On exit  : 0/0
  6198 ;;		Unchanged: 0/0
  6199 ;; Data sizes:     COMMON   BANK0   BANK1   BANK2   BANK3   BANK4   BANK5   BANK6
  6200 ;;      Params:         0       0       0       0       0       0       0       0
  6201 ;;      Locals:         0       0       0       0       0       0       0       0
  6202 ;;      Temps:          0       0       0       0       0       0       0       0
  6203 ;;      Totals:         0       0       0       0       0       0       0       0
  6204 ;;Total ram usage:        0 bytes
  6205 ;; Hardware stack levels used: 1
  6206 ;; This function calls:
  6207 ;;		Nothing
  6208 ;; This function is called by:
  6209 ;;		_TMR0_Initialize
  6210 ;;		_TMR0_ISR
  6211 ;; This function uses a non-reentrant model
  6212 ;;
  6213                           
  6214     0620                     _TMR0_DefaultInterruptHandler:	
  6215                           ;psect for function _TMR0_DefaultInterruptHandler
  6216                           
  6217     0620                     i1l439:	
  6218                           ;incstack = 0
  6219                           ; Regs used in _TMR0_DefaultInterruptHandler: []
  6220                           
  6221     0620  0008               	return
  6222     0621                     __end_of_TMR0_DefaultInterruptHandler:
  6223                           
  6224                           	psect	text41
  6225     0607                     __ptext41:	
  6226 ;; *************** function i1_LIN_stopTimer *****************
  6227 ;; Defined at:
  6228 ;;		line 312 in file "mcc_generated_files/LINDrivers/lin_slave.c"
  6229 ;; Parameters:    Size  Location     Type
  6230 ;;		None
  6231 ;; Auto vars:     Size  Location     Type
  6232 ;;		None
  6233 ;; Return value:  Size  Location     Type
  6234 ;;                  1    wreg      void 
  6235 ;; Registers used:
  6236 ;;		status,2
  6237 ;; Tracked objects:
  6238 ;;		On entry : 0/0
  6239 ;;		On exit  : 0/0
  6240 ;;		Unchanged: 0/0
  6241 ;; Data sizes:     COMMON   BANK0   BANK1   BANK2   BANK3   BANK4   BANK5   BANK6
  6242 ;;      Params:         0       0       0       0       0       0       0       0
  6243 ;;      Locals:         0       0       0       0       0       0       0       0
  6244 ;;      Temps:          0       0       0       0       0       0       0       0
  6245 ;;      Totals:         0       0       0       0       0       0       0       0
  6246 ;;Total ram usage:        0 bytes
  6247 ;; Hardware stack levels used: 1
  6248 ;; This function calls:
  6249 ;;		Nothing
  6250 ;; This function is called by:
  6251 ;;		_LIN_timerHandler
  6252 ;; This function uses a non-reentrant model
  6253 ;;
  6254                           
  6255     0607                     i1_LIN_stopTimer:	
  6256                           ;psect for function i1_LIN_stopTimer
  6257                           
  6258     0607                     i1l1938:	
  6259                           ;incstack = 0
  6260                           ; Regs used in i1_LIN_stopTimer: [status,2]
  6261                           
  6262                           
  6263                           ;mcc_generated_files/LINDrivers/lin_slave.c: 313:     __nop();
  6264     0607  0000               	nop
  6265     0608                     i1l1940:
  6266                           
  6267                           ;mcc_generated_files/LINDrivers/lin_slave.c: 315:     CountCallBack = 0;
  6268     0608  0020               	movlb	0	; select bank0
  6269     0609  01D1               	clrf	_CountCallBack	;volatile
  6270                           
  6271                           ;mcc_generated_files/LINDrivers/lin_slave.c: 316:     LIN_timerRunning = 0;
  6272     060A  01D2               	clrf	_LIN_timerRunning
  6273     060B                     i1l215:
  6274     060B  0008               	return
  6275     060C                     __end_ofi1_LIN_stopTimer:
  6276                           
  6277                           	psect	text42
  6278     0490                     __ptext42:	
  6279 ;; *************** function _EUSART_Transmit_ISR *****************
  6280 ;; Defined at:
  6281 ;;		line 197 in file "mcc_generated_files/eusart.c"
  6282 ;; Parameters:    Size  Location     Type
  6283 ;;		None
  6284 ;; Auto vars:     Size  Location     Type
  6285 ;;		None
  6286 ;; Return value:  Size  Location     Type
  6287 ;;                  1    wreg      void 
  6288 ;; Registers used:
  6289 ;;		wreg, fsr1l, fsr1h, status,2, status,0
  6290 ;; Tracked objects:
  6291 ;;		On entry : 0/0
  6292 ;;		On exit  : 0/0
  6293 ;;		Unchanged: 0/0
  6294 ;; Data sizes:     COMMON   BANK0   BANK1   BANK2   BANK3   BANK4   BANK5   BANK6
  6295 ;;      Params:         0       0       0       0       0       0       0       0
  6296 ;;      Locals:         0       0       0       0       0       0       0       0
  6297 ;;      Temps:          1       0       0       0       0       0       0       0
  6298 ;;      Totals:         1       0       0       0       0       0       0       0
  6299 ;;Total ram usage:        1 bytes
  6300 ;; Hardware stack levels used: 1
  6301 ;; This function calls:
  6302 ;;		Nothing
  6303 ;; This function is called by:
  6304 ;;		_EUSART_Initialize
  6305 ;;		_INTERRUPT_InterruptManager
  6306 ;; This function uses a non-reentrant model
  6307 ;;
  6308                           
  6309     0490                     _EUSART_Transmit_ISR:	
  6310                           ;psect for function _EUSART_Transmit_ISR
  6311                           
  6312     0490                     i1l2174:	
  6313                           ;incstack = 0
  6314                           ; Regs used in _EUSART_Transmit_ISR: [wreg+fsr1l+fsr1h+status,2+status,0]
  6315                           
  6316                           
  6317                           ;mcc_generated_files/eusart.c: 201:     if(sizeof(eusartTxBuffer) > eusartTxBufferRemain
      +                          ing)
  6318     0490  3008               	movlw	8
  6319     0491  0020               	movlb	0	; select bank0
  6320     0492  024C               	subwf	_eusartTxBufferRemaining,w	;volatile
  6321     0493  1803               	skipnc
  6322     0494  2C96               	goto	u155_21
  6323     0495  2C97               	goto	u155_20
  6324     0496                     u155_21:
  6325     0496  2CAF               	goto	i1l365
  6326     0497                     u155_20:
  6327     0497                     i1l2176:
  6328                           
  6329                           ;mcc_generated_files/eusart.c: 202:     {;mcc_generated_files/eusart.c: 203:         TXR
      +                          EG = eusartTxBuffer[eusartTxTail++];
  6330     0497  084D               	movf	_eusartTxTail,w
  6331     0498  3E30               	addlw	(low (_eusartTxBuffer| 0))& (0+255)
  6332     0499  0086               	movwf	6
  6333     049A  0187               	clrf	7
  6334     049B  0801               	movf	1,w
  6335     049C  0023               	movlb	3	; select bank3
  6336     049D  009A               	movwf	26	;volatile
  6337     049E                     i1l2178:
  6338     049E  3001               	movlw	1
  6339     049F  00F0               	movwf	??_EUSART_Transmit_ISR
  6340     04A0  0870               	movf	??_EUSART_Transmit_ISR,w
  6341     04A1  0020               	movlb	0	; select bank0
  6342     04A2  07CD               	addwf	_eusartTxTail,f	;volatile
  6343     04A3                     i1l2180:
  6344                           
  6345                           ;mcc_generated_files/eusart.c: 204:         if(sizeof(eusartTxBuffer) <= eusartTxTail)
  6346     04A3  3008               	movlw	8
  6347     04A4  024D               	subwf	_eusartTxTail,w	;volatile
  6348     04A5  1C03               	skipc
  6349     04A6  2CA8               	goto	u156_21
  6350     04A7  2CA9               	goto	u156_20
  6351     04A8                     u156_21:
  6352     04A8  2CAA               	goto	i1l2184
  6353     04A9                     u156_20:
  6354     04A9                     i1l2182:
  6355                           
  6356                           ;mcc_generated_files/eusart.c: 205:         {;mcc_generated_files/eusart.c: 206:        
      +                               eusartTxTail = 0;
  6357     04A9  01CD               	clrf	_eusartTxTail	;volatile
  6358     04AA                     i1l2184:
  6359                           
  6360                           ;mcc_generated_files/eusart.c: 208:         eusartTxBufferRemaining++;
  6361     04AA  3001               	movlw	1
  6362     04AB  00F0               	movwf	??_EUSART_Transmit_ISR
  6363     04AC  0870               	movf	??_EUSART_Transmit_ISR,w
  6364     04AD  07CC               	addwf	_eusartTxBufferRemaining,f	;volatile
  6365                           
  6366                           ;mcc_generated_files/eusart.c: 209:     }
  6367     04AE  2CB1               	goto	i1l368
  6368     04AF                     i1l365:	
  6369                           ;mcc_generated_files/eusart.c: 210:     else
  6370                           
  6371                           
  6372                           ;mcc_generated_files/eusart.c: 211:     {;mcc_generated_files/eusart.c: 212:         PIE
      +                          1bits.TXIE = 0;
  6373     04AF  0021               	movlb	1	; select bank1
  6374     04B0  1211               	bcf	17,4	;volatile
  6375     04B1                     i1l368:
  6376     04B1  0008               	return
  6377     04B2                     __end_of_EUSART_Transmit_ISR:
  6378                           
  6379                           	psect	text43
  6380     0368                     __ptext43:	
  6381 ;; *************** function _EUSART_Receive_ISR *****************
  6382 ;; Defined at:
  6383 ;;		line 216 in file "mcc_generated_files/eusart.c"
  6384 ;; Parameters:    Size  Location     Type
  6385 ;;		None
  6386 ;; Auto vars:     Size  Location     Type
  6387 ;;		None
  6388 ;; Return value:  Size  Location     Type
  6389 ;;                  1    wreg      void 
  6390 ;; Registers used:
  6391 ;;		wreg, fsr1l, fsr1h, status,2, status,0, pclath, cstack
  6392 ;; Tracked objects:
  6393 ;;		On entry : 0/0
  6394 ;;		On exit  : 0/0
  6395 ;;		Unchanged: 0/0
  6396 ;; Data sizes:     COMMON   BANK0   BANK1   BANK2   BANK3   BANK4   BANK5   BANK6
  6397 ;;      Params:         0       0       0       0       0       0       0       0
  6398 ;;      Locals:         0       0       0       0       0       0       0       0
  6399 ;;      Temps:          0       0       0       0       0       0       0       0
  6400 ;;      Totals:         0       0       0       0       0       0       0       0
  6401 ;;Total ram usage:        0 bytes
  6402 ;; Hardware stack levels used: 1
  6403 ;; Hardware stack levels required when called: 2
  6404 ;; This function calls:
  6405 ;;		NULL
  6406 ;;		_EUSART_DefaultErrorHandler
  6407 ;;		_EUSART_DefaultFramingErrorHandler
  6408 ;;		_EUSART_DefaultOverrunErrorHandler
  6409 ;;		_EUSART_RxDataHandler
  6410 ;; This function is called by:
  6411 ;;		_EUSART_Initialize
  6412 ;;		_INTERRUPT_InterruptManager
  6413 ;; This function uses a non-reentrant model
  6414 ;;
  6415                           
  6416     0368                     _EUSART_Receive_ISR:	
  6417                           ;psect for function _EUSART_Receive_ISR
  6418                           
  6419     0368                     i1l2186:	
  6420                           ;incstack = 0
  6421                           ; Regs used in _EUSART_Receive_ISR: [wreg+fsr1l+fsr1h+status,2+status,0+pclath+cstack]
  6422                           
  6423                           
  6424                           ;mcc_generated_files/eusart.c: 219:     eusartRxStatusBuffer[eusartRxHead].status = 0;
  6425     0368  087C               	movf	_eusartRxHead,w	;volatile
  6426     0369  3E20               	addlw	(low (_eusartRxStatusBuffer| 0))& (0+255)
  6427     036A  0086               	movwf	6
  6428     036B  0187               	clrf	7
  6429     036C  0181               	clrf	1
  6430     036D                     i1l2188:
  6431                           
  6432                           ;mcc_generated_files/eusart.c: 221:     if(RCSTAbits.FERR){
  6433     036D  0023               	movlb	3	; select bank3
  6434     036E  1D1D               	btfss	29,2	;volatile
  6435     036F  2B71               	goto	u157_21
  6436     0370  2B72               	goto	u157_20
  6437     0371                     u157_21:
  6438     0371  2B7D               	goto	i1l2194
  6439     0372                     u157_20:
  6440     0372                     i1l2190:
  6441                           
  6442                           ;mcc_generated_files/eusart.c: 222:         eusartRxStatusBuffer[eusartRxHead].ferr = 1;
  6443     0372  087C               	movf	_eusartRxHead,w	;volatile
  6444     0373  3E20               	addlw	(low (_eusartRxStatusBuffer| 0))& (0+255)
  6445     0374  0086               	movwf	6
  6446     0375  0187               	clrf	7
  6447     0376  1481               	bsf	1,1
  6448     0377                     i1l2192:
  6449                           
  6450                           ;mcc_generated_files/eusart.c: 223:         EUSART_FramingErrorHandler();
  6451     0377  0020               	movlb	0	; select bank0
  6452     0378  083F               	movf	_EUSART_FramingErrorHandler+1,w
  6453     0379  008A               	movwf	10
  6454     037A  083E               	movf	_EUSART_FramingErrorHandler,w
  6455     037B  000A               	callw
  6456     037C  3183               	pagesel	$
  6457     037D                     i1l2194:
  6458                           
  6459                           ;mcc_generated_files/eusart.c: 226:     if(RCSTAbits.OERR){
  6460     037D  0023               	movlb	3	; select bank3
  6461     037E  1C9D               	btfss	29,1	;volatile
  6462     037F  2B81               	goto	u158_21
  6463     0380  2B82               	goto	u158_20
  6464     0381                     u158_21:
  6465     0381  2B8D               	goto	i1l2200
  6466     0382                     u158_20:
  6467     0382                     i1l2196:
  6468                           
  6469                           ;mcc_generated_files/eusart.c: 227:         eusartRxStatusBuffer[eusartRxHead].oerr = 1;
  6470     0382  087C               	movf	_eusartRxHead,w	;volatile
  6471     0383  3E20               	addlw	(low (_eusartRxStatusBuffer| 0))& (0+255)
  6472     0384  0086               	movwf	6
  6473     0385  0187               	clrf	7
  6474     0386  1501               	bsf	1,2
  6475     0387                     i1l2198:
  6476                           
  6477                           ;mcc_generated_files/eusart.c: 228:         EUSART_OverrunErrorHandler();
  6478     0387  0020               	movlb	0	; select bank0
  6479     0388  083D               	movf	_EUSART_OverrunErrorHandler+1,w
  6480     0389  008A               	movwf	10
  6481     038A  083C               	movf	_EUSART_OverrunErrorHandler,w
  6482     038B  000A               	callw
  6483     038C  3183               	pagesel	$
  6484     038D                     i1l2200:
  6485                           
  6486                           ;mcc_generated_files/eusart.c: 231:     if(eusartRxStatusBuffer[eusartRxHead].status){
  6487     038D  087C               	movf	_eusartRxHead,w	;volatile
  6488     038E  3E20               	addlw	(low (_eusartRxStatusBuffer| 0))& (0+255)
  6489     038F  0086               	movwf	6
  6490     0390  0187               	clrf	7
  6491     0391  0801               	movf	1,w
  6492     0392  1903               	btfsc	3,2
  6493     0393  2B95               	goto	u159_21
  6494     0394  2B96               	goto	u159_20
  6495     0395                     u159_21:
  6496     0395  2B9D               	goto	i1l2204
  6497     0396                     u159_20:
  6498     0396                     i1l2202:
  6499                           
  6500                           ;mcc_generated_files/eusart.c: 232:         EUSART_ErrorHandler();
  6501     0396  0020               	movlb	0	; select bank0
  6502     0397  083B               	movf	_EUSART_ErrorHandler+1,w
  6503     0398  008A               	movwf	10
  6504     0399  083A               	movf	_EUSART_ErrorHandler,w
  6505     039A  000A               	callw
  6506     039B  3183               	pagesel	$
  6507                           
  6508                           ;mcc_generated_files/eusart.c: 233:     } else {
  6509     039C  2BA0               	goto	i1l375
  6510     039D                     i1l2204:
  6511                           
  6512                           ;mcc_generated_files/eusart.c: 234:         EUSART_RxDataHandler();
  6513     039D  3185  2500  3183   	fcall	_EUSART_RxDataHandler
  6514     03A0                     i1l375:
  6515     03A0  0008               	return
  6516     03A1                     __end_of_EUSART_Receive_ISR:
  6517                           
  6518                           	psect	text44
  6519     0614                     __ptext44:	
  6520 ;; *************** function _EUSART_DefaultOverrunErrorHandler *****************
  6521 ;; Defined at:
  6522 ;;		line 252 in file "mcc_generated_files/eusart.c"
  6523 ;; Parameters:    Size  Location     Type
  6524 ;;		None
  6525 ;; Auto vars:     Size  Location     Type
  6526 ;;		None
  6527 ;; Return value:  Size  Location     Type
  6528 ;;                  1    wreg      void 
  6529 ;; Registers used:
  6530 ;;		None
  6531 ;; Tracked objects:
  6532 ;;		On entry : 0/0
  6533 ;;		On exit  : 0/0
  6534 ;;		Unchanged: 0/0
  6535 ;; Data sizes:     COMMON   BANK0   BANK1   BANK2   BANK3   BANK4   BANK5   BANK6
  6536 ;;      Params:         0       0       0       0       0       0       0       0
  6537 ;;      Locals:         0       0       0       0       0       0       0       0
  6538 ;;      Temps:          0       0       0       0       0       0       0       0
  6539 ;;      Totals:         0       0       0       0       0       0       0       0
  6540 ;;Total ram usage:        0 bytes
  6541 ;; Hardware stack levels used: 1
  6542 ;; This function calls:
  6543 ;;		Nothing
  6544 ;; This function is called by:
  6545 ;;		_EUSART_Initialize
  6546 ;;		_EUSART_Receive_ISR
  6547 ;; This function uses a non-reentrant model
  6548 ;;
  6549                           
  6550     0614                     _EUSART_DefaultOverrunErrorHandler:	
  6551                           ;psect for function _EUSART_DefaultOverrunErrorHandler
  6552                           
  6553     0614                     i1l2060:	
  6554                           ;incstack = 0
  6555                           ; Regs used in _EUSART_DefaultOverrunErrorHandler: []
  6556                           
  6557                           
  6558                           ;mcc_generated_files/eusart.c: 255:     RCSTAbits.CREN = 0;
  6559     0614  0023               	movlb	3	; select bank3
  6560     0615  121D               	bcf	29,4	;volatile
  6561                           
  6562                           ;mcc_generated_files/eusart.c: 256:     RCSTAbits.CREN = 1;
  6563     0616  161D               	bsf	29,4	;volatile
  6564     0617                     i1l385:
  6565     0617  0008               	return
  6566     0618                     __end_of_EUSART_DefaultOverrunErrorHandler:
  6567                           
  6568                           	psect	text45
  6569     0621                     __ptext45:	
  6570 ;; *************** function _EUSART_DefaultFramingErrorHandler *****************
  6571 ;; Defined at:
  6572 ;;		line 250 in file "mcc_generated_files/eusart.c"
  6573 ;; Parameters:    Size  Location     Type
  6574 ;;		None
  6575 ;; Auto vars:     Size  Location     Type
  6576 ;;		None
  6577 ;; Return value:  Size  Location     Type
  6578 ;;                  1    wreg      void 
  6579 ;; Registers used:
  6580 ;;		None
  6581 ;; Tracked objects:
  6582 ;;		On entry : 0/0
  6583 ;;		On exit  : 0/0
  6584 ;;		Unchanged: 0/0
  6585 ;; Data sizes:     COMMON   BANK0   BANK1   BANK2   BANK3   BANK4   BANK5   BANK6
  6586 ;;      Params:         0       0       0       0       0       0       0       0
  6587 ;;      Locals:         0       0       0       0       0       0       0       0
  6588 ;;      Temps:          0       0       0       0       0       0       0       0
  6589 ;;      Totals:         0       0       0       0       0       0       0       0
  6590 ;;Total ram usage:        0 bytes
  6591 ;; Hardware stack levels used: 1
  6592 ;; This function calls:
  6593 ;;		Nothing
  6594 ;; This function is called by:
  6595 ;;		_EUSART_Initialize
  6596 ;;		_EUSART_Receive_ISR
  6597 ;; This function uses a non-reentrant model
  6598 ;;
  6599                           
  6600     0621                     _EUSART_DefaultFramingErrorHandler:	
  6601                           ;psect for function _EUSART_DefaultFramingErrorHandler
  6602                           
  6603     0621                     i1l382:	
  6604                           ;incstack = 0
  6605                           ; Regs used in _EUSART_DefaultFramingErrorHandler: []
  6606                           
  6607     0621  0008               	return
  6608     0622                     __end_of_EUSART_DefaultFramingErrorHandler:
  6609                           
  6610                           	psect	text46
  6611     0618                     __ptext46:	
  6612 ;; *************** function _EUSART_DefaultErrorHandler *****************
  6613 ;; Defined at:
  6614 ;;		line 260 in file "mcc_generated_files/eusart.c"
  6615 ;; Parameters:    Size  Location     Type
  6616 ;;		None
  6617 ;; Auto vars:     Size  Location     Type
  6618 ;;		None
  6619 ;; Return value:  Size  Location     Type
  6620 ;;                  1    wreg      void 
  6621 ;; Registers used:
  6622 ;;		wreg, fsr1l, fsr1h, status,2, status,0, pclath, cstack
  6623 ;; Tracked objects:
  6624 ;;		On entry : 0/0
  6625 ;;		On exit  : 0/0
  6626 ;;		Unchanged: 0/0
  6627 ;; Data sizes:     COMMON   BANK0   BANK1   BANK2   BANK3   BANK4   BANK5   BANK6
  6628 ;;      Params:         0       0       0       0       0       0       0       0
  6629 ;;      Locals:         0       0       0       0       0       0       0       0
  6630 ;;      Temps:          0       0       0       0       0       0       0       0
  6631 ;;      Totals:         0       0       0       0       0       0       0       0
  6632 ;;Total ram usage:        0 bytes
  6633 ;; Hardware stack levels used: 1
  6634 ;; Hardware stack levels required when called: 1
  6635 ;; This function calls:
  6636 ;;		_EUSART_RxDataHandler
  6637 ;; This function is called by:
  6638 ;;		_EUSART_Initialize
  6639 ;;		_EUSART_Receive_ISR
  6640 ;; This function uses a non-reentrant model
  6641 ;;
  6642                           
  6643     0618                     _EUSART_DefaultErrorHandler:	
  6644                           ;psect for function _EUSART_DefaultErrorHandler
  6645                           
  6646     0618                     i1l2062:	
  6647                           ;incstack = 0
  6648                           ; Regs used in _EUSART_DefaultErrorHandler: [wreg+fsr1l+fsr1h+status,2+status,0+pclath+c
      +                          stack]
  6649                           
  6650                           
  6651                           ;mcc_generated_files/eusart.c: 261:     EUSART_RxDataHandler();
  6652     0618  3185  2500  3186   	fcall	_EUSART_RxDataHandler
  6653     061B                     i1l388:
  6654     061B  0008               	return
  6655     061C                     __end_of_EUSART_DefaultErrorHandler:
  6656                           
  6657                           	psect	text47
  6658     0500                     __ptext47:	
  6659 ;; *************** function _EUSART_RxDataHandler *****************
  6660 ;; Defined at:
  6661 ;;		line 240 in file "mcc_generated_files/eusart.c"
  6662 ;; Parameters:    Size  Location     Type
  6663 ;;		None
  6664 ;; Auto vars:     Size  Location     Type
  6665 ;;		None
  6666 ;; Return value:  Size  Location     Type
  6667 ;;                  1    wreg      void 
  6668 ;; Registers used:
  6669 ;;		wreg, fsr1l, fsr1h, status,2, status,0
  6670 ;; Tracked objects:
  6671 ;;		On entry : 0/0
  6672 ;;		On exit  : 0/0
  6673 ;;		Unchanged: 0/0
  6674 ;; Data sizes:     COMMON   BANK0   BANK1   BANK2   BANK3   BANK4   BANK5   BANK6
  6675 ;;      Params:         0       0       0       0       0       0       0       0
  6676 ;;      Locals:         0       0       0       0       0       0       0       0
  6677 ;;      Temps:          1       0       0       0       0       0       0       0
  6678 ;;      Totals:         1       0       0       0       0       0       0       0
  6679 ;;Total ram usage:        1 bytes
  6680 ;; Hardware stack levels used: 1
  6681 ;; This function calls:
  6682 ;;		Nothing
  6683 ;; This function is called by:
  6684 ;;		_EUSART_Receive_ISR
  6685 ;;		_EUSART_DefaultErrorHandler
  6686 ;; This function uses a non-reentrant model
  6687 ;;
  6688                           
  6689     0500                     _EUSART_RxDataHandler:	
  6690                           ;psect for function _EUSART_RxDataHandler
  6691                           
  6692     0500                     i1l1928:	
  6693                           ;incstack = 0
  6694                           ; Regs used in _EUSART_RxDataHandler: [wreg+fsr1l+fsr1h+status,2+status,0]
  6695                           
  6696                           
  6697                           ;mcc_generated_files/eusart.c: 242:     eusartRxBuffer[eusartRxHead++] = RCREG;
  6698     0500  087C               	movf	_eusartRxHead,w
  6699     0501  3E28               	addlw	(low (_eusartRxBuffer| 0))& (0+255)
  6700     0502  0086               	movwf	6
  6701     0503  0187               	clrf	7
  6702     0504  0023               	movlb	3	; select bank3
  6703     0505  0819               	movf	25,w	;volatile
  6704     0506  0081               	movwf	1
  6705     0507                     i1l1930:
  6706     0507  3001               	movlw	1
  6707     0508  00F0               	movwf	??_EUSART_RxDataHandler
  6708     0509  0870               	movf	??_EUSART_RxDataHandler,w
  6709     050A  07FC               	addwf	_eusartRxHead,f	;volatile
  6710     050B                     i1l1932:
  6711                           
  6712                           ;mcc_generated_files/eusart.c: 243:     if(sizeof(eusartRxBuffer) <= eusartRxHead)
  6713     050B  3008               	movlw	8
  6714     050C  027C               	subwf	_eusartRxHead,w	;volatile
  6715     050D  1C03               	skipc
  6716     050E  2D10               	goto	u125_21
  6717     050F  2D11               	goto	u125_20
  6718     0510                     u125_21:
  6719     0510  2D12               	goto	i1l1936
  6720     0511                     u125_20:
  6721     0511                     i1l1934:
  6722                           
  6723                           ;mcc_generated_files/eusart.c: 244:     {;mcc_generated_files/eusart.c: 245:         eus
      +                          artRxHead = 0;
  6724     0511  01FC               	clrf	_eusartRxHead	;volatile
  6725     0512                     i1l1936:
  6726                           
  6727                           ;mcc_generated_files/eusart.c: 247:     eusartRxCount++;
  6728     0512  3001               	movlw	1
  6729     0513  00F0               	movwf	??_EUSART_RxDataHandler
  6730     0514  0870               	movf	??_EUSART_RxDataHandler,w
  6731     0515  0020               	movlb	0	; select bank0
  6732     0516  07CA               	addwf	_eusartRxCount,f	;volatile
  6733     0517                     i1l379:
  6734     0517  0008               	return
  6735     0518                     __end_of_EUSART_RxDataHandler:
  6736     007E                     btemp	set	126	;btemp
  6737     007E                     int$flags	set	126
  6738     007E                     wtemp0	set	126
  6739                           
  6740                           	psect	config
  6741                           
  6742                           ;Config register CONFIG1 @ 0x8007
  6743                           ;	Oscillator Selection
  6744                           ;	FOSC = INTOSC, INTOSC oscillator: I/O function on CLKIN pin
  6745                           ;	Watchdog Timer Enable
  6746                           ;	WDTE = OFF, WDT disabled
  6747                           ;	Power-up Timer Enable
  6748                           ;	PWRTE = OFF, PWRT disabled
  6749                           ;	MCLR Pin Function Select
  6750                           ;	MCLRE = ON, MCLR/VPP pin function is MCLR
  6751                           ;	Flash Program Memory Code Protection
  6752                           ;	CP = OFF, Program memory code protection is disabled
  6753                           ;	Data Memory Code Protection
  6754                           ;	CPD = OFF, Data memory code protection is disabled
  6755                           ;	Brown-out Reset Enable
  6756                           ;	BOREN = ON, Brown-out Reset enabled
  6757                           ;	Clock Out Enable
  6758                           ;	CLKOUTEN = OFF, CLKOUT function is disabled. I/O or oscillator function on the CLKOUT 
      +                          pin
  6759                           ;	Internal/External Switchover
  6760                           ;	IESO = ON, Internal/External Switchover mode is enabled
  6761                           ;	Fail-Safe Clock Monitor Enable
  6762                           ;	FCMEN = ON, Fail-Safe Clock Monitor is enabled
  6763     8007                     	org	32775
  6764     8007  3FE4               	dw	16356
  6765                           
  6766                           ;Config register CONFIG2 @ 0x8008
  6767                           ;	Flash Memory Self-Write Protection
  6768                           ;	WRT = OFF, Write protection off
  6769                           ;	Voltage Regulator Capacitor Enable
  6770                           ;	VCAPEN = OFF, All VCAP pin functionality is disabled
  6771                           ;	PLL Enable
  6772                           ;	PLLEN = ON, 4x PLL enabled
  6773                           ;	Stack Overflow/Underflow Reset Enable
  6774                           ;	STVREN = ON, Stack Overflow or Underflow will cause a Reset
  6775                           ;	Brown-out Reset Voltage Selection
  6776                           ;	BORV = LO, Brown-out Reset Voltage (Vbor), low trip point selected.
  6777                           ;	Low-Voltage Programming Enable
  6778                           ;	LVP = OFF, High-voltage on MCLR/VPP must be used for programming
  6779     8008                     	org	32776
  6780     8008  1FFF               	dw	8191

Data Sizes:
    Strings     0
    Constant    4
    Data        1
    BSS         75
    Persistent  32
    Stack       0

Auto Spaces:
    Space          Size  Autos    Used
    COMMON           14     12      13
    BANK0            80     11      78
    BANK1            80      3      11
    BANK2            80      0       0
    BANK3            80      0       0
    BANK4            80      0       0
    BANK5            80      0       0
    BANK6            16      0       0

Pointer List with Targets:

    EUSART_ErrorHandler	PTR FTN()void  size(2) Largest target is 1
		 -> EUSART_DefaultErrorHandler(), NULL(), 

    EUSART_FramingErrorHandler	PTR FTN()void  size(2) Largest target is 1
		 -> EUSART_DefaultFramingErrorHandler(), NULL(), 

    EUSART_OverrunErrorHandler	PTR FTN()void  size(2) Largest target is 1
		 -> EUSART_DefaultOverrunErrorHandler(), NULL(), 

    EUSART_RxDefaultInterruptHandler	PTR FTN()void  size(2) Largest target is 1
		 -> EUSART_Receive_ISR(), NULL(), 

    EUSART_SetErrorHandler@interruptHandler	PTR FTN()void  size(2) Largest target is 1
		 -> EUSART_DefaultErrorHandler(), 

    EUSART_SetFramingErrorHandler@interruptHandler	PTR FTN()void  size(2) Largest target is 1
		 -> EUSART_DefaultFramingErrorHandler(), 

    EUSART_SetOverrunErrorHandler@interruptHandler	PTR FTN()void  size(2) Largest target is 1
		 -> EUSART_DefaultOverrunErrorHandler(), 

    EUSART_SetRxInterruptHandler@interruptHandler	PTR FTN()void  size(2) Largest target is 1
		 -> EUSART_Receive_ISR(), 

    EUSART_SetTxInterruptHandler@interruptHandler	PTR FTN()void  size(2) Largest target is 1
		 -> EUSART_Transmit_ISR(), 

    EUSART_TxDefaultInterruptHandler	PTR FTN()void  size(2) Largest target is 1
		 -> EUSART_Transmit_ISR(), NULL(), 

    LIN_getChecksum@data	PTR unsigned char  size(1) Largest target is 13
		 -> LIN_packet(BANK0[13]), 

    LIN_getFromTable@rxCommand	PTR const struct . size(2) Largest target is 5
		 -> scheduleTable(CODE[4]), NULL(NULL[0]), 

    LIN_getFromTable@rxCommand$data	PTR unsigned char  size(1) Largest target is 8
		 -> SW_STATE_Data(BANK1[8]), 

    LIN_getPacket@data	PTR unsigned char  size(1) Largest target is 8
		 -> processLIN@tempRxData(BANK0[8]), 

    LIN_init@command	const PTR const struct . size(2) Largest target is 5
		 -> scheduleTable(CODE[4]), 

    LIN_init@processData	PTR FTN()void  size(2) Largest target is 1
		 -> processLIN(), 

    LIN_processData	PTR FTN()void  size(2) Largest target is 1
		 -> processLIN(), NULL(), 

    LIN_queuePacket@tempSchedule	PTR const struct . size(2) Largest target is 5
		 -> scheduleTable(CODE[4]), NULL(NULL[0]), 

    LIN_queuePacket@tempSchedule$data	PTR unsigned char  size(1) Largest target is 8
		 -> SW_STATE_Data(BANK1[8]), 

    LIN_rxCommand	PTR const struct . size(2) Largest target is 5
		 -> scheduleTable(CODE[4]), NULL(NULL[0]), 

    LIN_rxCommand$data	PTR unsigned char  size(1) Largest target is 8
		 -> SW_STATE_Data(BANK1[8]), 

    LIN_sendPacket@data	PTR unsigned char  size(1) Largest target is 13
		 -> LIN_packet(BANK0[13]), 

    memcpy@d	PTR unsigned char  size(1) Largest target is 13
		 -> LIN_packet(BANK0[13]), processLIN@tempRxData(BANK0[8]), 

    memcpy@d1	PTR void  size(1) Largest target is 13
		 -> LIN_packet(BANK0[13]), processLIN@tempRxData(BANK0[8]), 

    memcpy@s	PTR const unsigned char  size(1) Largest target is 13
		 -> LIN_packet(BANK0[13]), LIN_packet$data(BANK0[8]), SW_STATE_Data(BANK1[8]), 

    memcpy@s1	PTR const void  size(1) Largest target is 13
		 -> LIN_packet(BANK0[13]), LIN_packet$data(BANK0[8]), SW_STATE_Data(BANK1[8]), 

    memset@dest	PTR void  size(1) Largest target is 13
		 -> LIN_packet(BANK0[13]), 

    memset@p	PTR unsigned char  size(1) Largest target is 13
		 -> LIN_packet(BANK0[13]), 

    S26$data	PTR unsigned char  size(1) Largest target is 8
		 -> SW_STATE_Data(BANK1[8]), 

    scheduleTable$data	PTR unsigned char  size(1) Largest target is 8
		 -> SW_STATE_Data(BANK1[8]), 

    sp__memcpy	PTR void  size(1) Largest target is 13
		 -> LIN_packet(BANK0[13]), processLIN@tempRxData(BANK0[8]), 

    sp__memset	PTR void  size(1) Largest target is 13
		 -> LIN_packet(BANK0[13]), 

    TMR0_InterruptHandler	PTR FTN()void  size(2) Largest target is 1
		 -> LIN_timerHandler(), TMR0_DefaultInterruptHandler(), NULL(), 

    TMR0_SetInterruptHandler@InterruptHandler	PTR FTN()void  size(2) Largest target is 1
		 -> LIN_timerHandler(), TMR0_DefaultInterruptHandler(), 


Critical Paths under _main in COMMON

    _TMR0_Initialize->_TMR0_SetInterruptHandler
    _LIN_Slave_Initialize->_LIN_init
    _LIN_setTimerHandler->_TMR0_SetInterruptHandler
    _EUSART_Initialize->_EUSART_SetErrorHandler
    _EUSART_Initialize->_EUSART_SetFramingErrorHandler
    _EUSART_Initialize->_EUSART_SetOverrunErrorHandler
    _EUSART_Initialize->_EUSART_SetRxInterruptHandler
    _EUSART_Initialize->_EUSART_SetTxInterruptHandler
    _processLIN->_LIN_getPacket
    _LIN_getPacket->_memcpy
    _LIN_startTimer->_TMR0_WriteTimer
    _LIN_queuePacket->_LIN_sendPacket
    _LIN_sendPacket->_LIN_getChecksum
    _LIN_checkPID->_LIN_getFromTable
    _LIN_breakCheck->_EUSART_Read

Critical Paths under _INTERRUPT_InterruptManager in COMMON

    _INTERRUPT_InterruptManager->_EUSART_Transmit_ISR
    _TMR0_ISR->_LIN_timerHandler
    _EUSART_Receive_ISR->_EUSART_RxDataHandler
    _EUSART_DefaultErrorHandler->_EUSART_RxDataHandler

Critical Paths under _main in BANK0

    _LIN_handler->_processLIN
    _LIN_queuePacket->_LIN_sendPacket

Critical Paths under _INTERRUPT_InterruptManager in BANK0

    None.

Critical Paths under _main in BANK1

    _main->_LIN_handler

Critical Paths under _INTERRUPT_InterruptManager in BANK1

    None.

Critical Paths under _main in BANK2

    None.

Critical Paths under _INTERRUPT_InterruptManager in BANK2

    None.

Critical Paths under _main in BANK3

    None.

Critical Paths under _INTERRUPT_InterruptManager in BANK3

    None.

Critical Paths under _main in BANK4

    None.

Critical Paths under _INTERRUPT_InterruptManager in BANK4

    None.

Critical Paths under _main in BANK5

    None.

Critical Paths under _INTERRUPT_InterruptManager in BANK5

    None.

Critical Paths under _main in BANK6

    None.

Critical Paths under _INTERRUPT_InterruptManager in BANK6

    None.

Call Graph Tables:

 ---------------------------------------------------------------------------------
 (Depth) Function   	        Calls       Base Space   Used Autos Params    Refs
 ---------------------------------------------------------------------------------
 (0) _main                                                 0     0      0    7075
                        _LIN_handler
                  _SYSTEM_Initialize
 ---------------------------------------------------------------------------------
 (1) _SYSTEM_Initialize                                    0     0      0    1056
                  _EUSART_Initialize
               _LIN_Slave_Initialize
              _OSCILLATOR_Initialize
             _PIN_MANAGER_Initialize
                    _TMR0_Initialize
                     _WDT_Initialize
 ---------------------------------------------------------------------------------
 (2) _WDT_Initialize                                       0     0      0       0
 ---------------------------------------------------------------------------------
 (2) _TMR0_Initialize                                      0     0      0     174
           _TMR0_SetInterruptHandler
 ---------------------------------------------------------------------------------
 (2) _PIN_MANAGER_Initialize                               0     0      0       0
 ---------------------------------------------------------------------------------
 (2) _OSCILLATOR_Initialize                                0     0      0       0
 ---------------------------------------------------------------------------------
 (2) _LIN_Slave_Initialize                                 0     0      0     392
                           _LIN_init
 ---------------------------------------------------------------------------------
 (3) _LIN_init                                             5     1      4     392
                                              3 COMMON     5     1      4
                       _LIN_enableRx
                _LIN_setTimerHandler
                      _LIN_stopTimer
 ---------------------------------------------------------------------------------
 (4) _LIN_setTimerHandler                                  0     0      0     174
           _TMR0_SetInterruptHandler
 ---------------------------------------------------------------------------------
 (3) _TMR0_SetInterruptHandler                             2     0      2     174
                                              1 COMMON     2     0      2
 ---------------------------------------------------------------------------------
 (2) _EUSART_Initialize                                    0     0      0     490
             _EUSART_SetErrorHandler
      _EUSART_SetFramingErrorHandler
      _EUSART_SetOverrunErrorHandler
       _EUSART_SetRxInterruptHandler
       _EUSART_SetTxInterruptHandler
 ---------------------------------------------------------------------------------
 (3) _EUSART_SetTxInterruptHandler                         2     0      2      98
                                              1 COMMON     2     0      2
 ---------------------------------------------------------------------------------
 (3) _EUSART_SetRxInterruptHandler                         2     0      2      98
                                              1 COMMON     2     0      2
 ---------------------------------------------------------------------------------
 (3) _EUSART_SetOverrunErrorHandler                        2     0      2      98
                                              1 COMMON     2     0      2
 ---------------------------------------------------------------------------------
 (3) _EUSART_SetFramingErrorHandler                        2     0      2      98
                                              1 COMMON     2     0      2
 ---------------------------------------------------------------------------------
 (3) _EUSART_SetErrorHandler                               2     0      2      98
                                              1 COMMON     2     0      2
 ---------------------------------------------------------------------------------
 (1) _LIN_handler                                          3     3      0    6019
                                              0 BANK1      3     3      0
                                NULL *
                        _EUSART_Read
                 _EUSART_is_rx_ready
                     _LIN_breakCheck
                       _LIN_checkPID
                      _LIN_disableRx
                       _LIN_enableRx
                    _LIN_getChecksum
                   _LIN_getFromTable
                    _LIN_queuePacket
                     _LIN_startTimer
                      _LIN_stopTimer
                             _memset
                         _processLIN *
 ---------------------------------------------------------------------------------
 (2) _processLIN                                          11    11      0    1320
                                              0 BANK0     11    11      0
                      _LIN_getPacket
 ---------------------------------------------------------------------------------
 (3) _LIN_getPacket                                        2     2      0    1079
                                              9 COMMON     2     2      0
                             _memcpy
                             _memset
 ---------------------------------------------------------------------------------
 (4) _memset                                               7     3      4     466
                                              1 COMMON     7     3      4
 ---------------------------------------------------------------------------------
 (4) _LIN_stopTimer                                        0     0      0       0
 ---------------------------------------------------------------------------------
 (2) _LIN_startTimer                                       1     1      0      44
                                              2 COMMON     1     1      0
                    _TMR0_WriteTimer
 ---------------------------------------------------------------------------------
 (3) _TMR0_WriteTimer                                      1     1      0      22
                                              1 COMMON     1     1      0
 ---------------------------------------------------------------------------------
 (2) _LIN_queuePacket                                      6     6      0    2280
                                              2 BANK0      6     6      0
                    _LIN_getChecksum
                     _LIN_sendPacket
                             _memcpy
 ---------------------------------------------------------------------------------
 (4) _memcpy                                               8     5      3     513
                                              1 COMMON     8     5      3
 ---------------------------------------------------------------------------------
 (3) _LIN_sendPacket                                       5     3      2     991
                                              9 COMMON     3     1      2
                                              0 BANK0      2     2      0
                       _EUSART_Write
                    _LIN_getChecksum
 ---------------------------------------------------------------------------------
 (4) _LIN_getChecksum                                      8     6      2     639
                                              1 COMMON     8     6      2
 ---------------------------------------------------------------------------------
 (4) _EUSART_Write                                         2     2      0      44
                                              1 COMMON     2     2      0
 ---------------------------------------------------------------------------------
 (4) _LIN_enableRx                                         0     0      0       0
 ---------------------------------------------------------------------------------
 (2) _LIN_disableRx                                        0     0      0       0
 ---------------------------------------------------------------------------------
 (2) _LIN_checkPID                                         1     1      0     813
                                              8 COMMON     1     1      0
                     _LIN_calcParity
                   _LIN_getFromTable
 ---------------------------------------------------------------------------------
 (2) _LIN_getFromTable                                     7     6      1     409
                                              1 COMMON     7     6      1
 ---------------------------------------------------------------------------------
 (3) _LIN_calcParity                                       3     3      0     338
                                              1 COMMON     3     3      0
 ---------------------------------------------------------------------------------
 (2) _LIN_breakCheck                                       0     0      0      24
                        _EUSART_Read
             _EUSART_get_last_status
 ---------------------------------------------------------------------------------
 (3) _EUSART_get_last_status                               0     0      0       0
 ---------------------------------------------------------------------------------
 (3) _EUSART_Read                                          2     2      0      24
                                              1 COMMON     2     2      0
 ---------------------------------------------------------------------------------
 (2) _EUSART_is_rx_ready                                   0     0      0       0
 ---------------------------------------------------------------------------------
 (8) NULL(Fake)                                            0     0      0       0
 ---------------------------------------------------------------------------------
 Estimated maximum stack depth 8
 ---------------------------------------------------------------------------------
 (Depth) Function   	        Calls       Base Space   Used Autos Params    Refs
 ---------------------------------------------------------------------------------
 (6) _INTERRUPT_InterruptManager                           0     0      0       0
                                NULL *
                 _EUSART_Receive_ISR *
                _EUSART_Transmit_ISR *
                           _TMR0_ISR
 ---------------------------------------------------------------------------------
 (7) _TMR0_ISR                                             0     0      0       0
                                NULL *
                   _LIN_timerHandler *
       _TMR0_DefaultInterruptHandler *
 ---------------------------------------------------------------------------------
 (8) _TMR0_DefaultInterruptHandler                         0     0      0       0
 ---------------------------------------------------------------------------------
 (8) _LIN_timerHandler                                     1     1      0       0
                                              0 COMMON     1     1      0
                    i1_LIN_stopTimer
 ---------------------------------------------------------------------------------
 (9) i1_LIN_stopTimer                                      0     0      0       0
 ---------------------------------------------------------------------------------
 (7) _EUSART_Transmit_ISR                                  1     1      0       0
                                              0 COMMON     1     1      0
 ---------------------------------------------------------------------------------
 (7) _EUSART_Receive_ISR                                   0     0      0       0
                                NULL *
         _EUSART_DefaultErrorHandler *
  _EUSART_DefaultFramingErrorHandler *
  _EUSART_DefaultOverrunErrorHandler *
               _EUSART_RxDataHandler
 ---------------------------------------------------------------------------------
 (8) _EUSART_DefaultOverrunErrorHandler                    0     0      0       0
 ---------------------------------------------------------------------------------
 (8) _EUSART_DefaultFramingErrorHandler                    0     0      0       0
 ---------------------------------------------------------------------------------
 (8) _EUSART_DefaultErrorHandler                           0     0      0       0
               _EUSART_RxDataHandler
 ---------------------------------------------------------------------------------
 (8) _EUSART_RxDataHandler                                 1     1      0       0
                                              0 COMMON     1     1      0
 ---------------------------------------------------------------------------------
 (8) NULL(Fake)                                            0     0      0       0
 ---------------------------------------------------------------------------------
 Estimated maximum stack depth 9
 ---------------------------------------------------------------------------------

 Call Graph Graphs:

 _main (ROOT)
   _LIN_handler
     NULL(Fake) *
     _EUSART_Read *
     _EUSART_is_rx_ready *
     _LIN_breakCheck *
       _EUSART_Read
       _EUSART_get_last_status
     _LIN_checkPID *
       _LIN_calcParity
       _LIN_getFromTable
     _LIN_disableRx *
     _LIN_enableRx *
     _LIN_getChecksum *
     _LIN_getFromTable *
     _LIN_queuePacket *
       _LIN_getChecksum
       _LIN_sendPacket
         _EUSART_Write
         _LIN_getChecksum
       _memcpy
     _LIN_startTimer *
       _TMR0_WriteTimer
     _LIN_stopTimer *
     _memset *
     _processLIN *
       _LIN_getPacket
         _memcpy
         _memset
   _SYSTEM_Initialize
     _EUSART_Initialize
       _EUSART_SetErrorHandler
       _EUSART_SetFramingErrorHandler
       _EUSART_SetOverrunErrorHandler
       _EUSART_SetRxInterruptHandler
       _EUSART_SetTxInterruptHandler
     _LIN_Slave_Initialize
       _LIN_init
         _LIN_enableRx
         _LIN_setTimerHandler
           _TMR0_SetInterruptHandler
         _LIN_stopTimer
     _OSCILLATOR_Initialize
     _PIN_MANAGER_Initialize
     _TMR0_Initialize
       _TMR0_SetInterruptHandler
     _WDT_Initialize

 _INTERRUPT_InterruptManager (ROOT)
   NULL(Fake) *
   _EUSART_Receive_ISR *
     NULL(Fake) *
     _EUSART_DefaultErrorHandler *
       _EUSART_RxDataHandler
     _EUSART_DefaultFramingErrorHandler *
     _EUSART_DefaultOverrunErrorHandler *
     _EUSART_RxDataHandler *
   _EUSART_Transmit_ISR *
   _TMR0_ISR *
     NULL(Fake) *
     _LIN_timerHandler *
       i1_LIN_stopTimer
     _TMR0_DefaultInterruptHandler *

 Address spaces:
Name               Size   Autos  Total    Cost      Usage
BIGRAM             1F0      0       0       0        0.0%
EEDATA             100      0       0       0        0.0%
NULL                 0      0       0       0        0.0%
CODE                 0      0       0       0        0.0%
BITCOMMON            E      0       0       1        0.0%
BITSFR0              0      0       0       1        0.0%
SFR0                 0      0       0       1        0.0%
COMMON               E      C       D       2       92.9%
BITSFR1              0      0       0       2        0.0%
SFR1                 0      0       0       2        0.0%
BITSFR2              0      0       0       3        0.0%
SFR2                 0      0       0       3        0.0%
STACK                0      0       0       3        0.0%
BITSFR3              0      0       0       4        0.0%
SFR3                 0      0       0       4        0.0%
ABS                  0      0      66       4        0.0%
BITBANK0            50      0       0       5        0.0%
BITSFR4              0      0       0       5        0.0%
SFR4                 0      0       0       5        0.0%
BANK0               50      B      4E       6       97.5%
BITSFR5              0      0       0       6        0.0%
SFR5                 0      0       0       6        0.0%
BITBANK1            50      0       0       7        0.0%
BITSFR6              0      0       0       7        0.0%
SFR6                 0      0       0       7        0.0%
BANK1               50      3       B       8       13.8%
BITSFR7              0      0       0       8        0.0%
SFR7                 0      0       0       8        0.0%
BITBANK2            50      0       0       9        0.0%
BITSFR8              0      0       0       9        0.0%
SFR8                 0      0       0       9        0.0%
BANK2               50      0       0      10        0.0%
BITSFR9              0      0       0      10        0.0%
SFR9                 0      0       0      10        0.0%
BITBANK3            50      0       0      11        0.0%
BITSFR10             0      0       0      11        0.0%
SFR10                0      0       0      11        0.0%
BANK3               50      0       0      12        0.0%
BITSFR11             0      0       0      12        0.0%
SFR11                0      0       0      12        0.0%
BITBANK4            50      0       0      13        0.0%
BITSFR12             0      0       0      13        0.0%
SFR12                0      0       0      13        0.0%
BANK4               50      0       0      14        0.0%
BITSFR13             0      0       0      14        0.0%
SFR13                0      0       0      14        0.0%
BITBANK5            50      0       0      15        0.0%
BITSFR14             0      0       0      15        0.0%
SFR14                0      0       0      15        0.0%
BANK5               50      0       0      16        0.0%
BITSFR15             0      0       0      16        0.0%
SFR15                0      0       0      16        0.0%
BITBANK6            10      0       0      17        0.0%
BITSFR16             0      0       0      17        0.0%
SFR16                0      0       0      17        0.0%
BANK6               10      0       0      18        0.0%
BITSFR17             0      0       0      18        0.0%
SFR17                0      0       0      18        0.0%
BITSFR18             0      0       0      19        0.0%
SFR18                0      0       0      19        0.0%
DATA                 0      0      66      19        0.0%
BITSFR19             0      0       0      20        0.0%
SFR19                0      0       0      20        0.0%
BITSFR20             0      0       0      21        0.0%
SFR20                0      0       0      21        0.0%
BITSFR21             0      0       0      22        0.0%
SFR21                0      0       0      22        0.0%
BITSFR22             0      0       0      23        0.0%
SFR22                0      0       0      23        0.0%
BITSFR23             0      0       0      24        0.0%
SFR23                0      0       0      24        0.0%
BITSFR24             0      0       0      25        0.0%
SFR24                0      0       0      25        0.0%
BITSFR25             0      0       0      26        0.0%
SFR25                0      0       0      26        0.0%
BITSFR26             0      0       0      27        0.0%
SFR26                0      0       0      27        0.0%
BITSFR27             0      0       0      28        0.0%
SFR27                0      0       0      28        0.0%
BITSFR28             0      0       0      29        0.0%
SFR28                0      0       0      29        0.0%
BITSFR29             0      0       0      30        0.0%
SFR29                0      0       0      30        0.0%
BITSFR30             0      0       0      31        0.0%
SFR30                0      0       0      31        0.0%
BITSFR31             0      0       0      32        0.0%
SFR31                0      0       0      32        0.0%


Microchip Technology PIC Macro Assembler V2.45 build 20230818022343 
Symbol Table                                                                                   Wed May 21 15:57:30 2025

                       __end_of_LIN_breakCheck 0568                  ?_EUSART_SetRxInterruptHandler 0071  
                        __end_of_LIN_getPacket 0490                          ??_LIN_setTimerHandler 0073  
                        __end_of_LIN_disableRx 0607                                             l21 02E4  
                                           l30 02F1                                             l23 02E9  
                                           l15 0593                                             l24 02E7  
                                           l33 02F8                                             l42 030A  
                                           l27 02EE                                             l19 02E0  
                                           l52 0329                                             l36 02FB  
                                           l45 0316                                             l29 02F3  
                                           l39 0307                                             l48 0319  
                              _timer0ReloadVal 0048                                ?_LIN_calcParity 0070  
                                          l201 03D0                                            l202 03D3  
                                          l124 02D8                                            l212 05C8  
                                          l221 0606                                            l205 05A0  
                                          l117 052D                                            l215 05F7  
                                          l400 05DA                                            l225 0567  
                                          l218 0601                                            l163 017F  
                                          l403 05E0                                            l340 05C0  
                                          l500 05A7                                            l420 0541  
                                          l181 026F                                            l173 048F  
                                          l334 0367                                            l191 04FF  
                                          l503 05AC                                            l256 04CB  
                                          l353 0421                                            l169 046B  
                                          l346 061E                                            l362 03FB  
                                          l426 05FC                                            l506 0613  
                                          l195 0205                                            l436 05D4  
                                          l358 03DB                                            l359 03E4  
                                          l391 05EC                                            l394 05E6  
                                          l397 05F2                                            l497 0554  
                                          u560 05AC                                            u561 05AB  
                                          u900 03E0                                            u901 03DF  
                                          u910 03F6                                            u911 03F5  
                                          u920 0476                                            u921 0475  
                                          u930 0460                                            u850 0446  
                                          u931 045F                                            u851 0445  
                                          u940 0402                                            u860 03C2  
                                          u941 0401                                            u861 03C1  
                                          u950 0418                                            u870 03D0  
                                          u951 0417                                            u871 03CF  
                                          u960 021C                                            u880 04E5  
                                          u961 021B                                            u881 04E4  
                                          u970 022F                                            u890 03DB  
                                          u971 022E                                            u891 03DA  
                                          u980 023B                                            u981 023A  
                                          u990 0188                                            u991 0186  
                                          u992 0189                         ??_EUSART_RxDataHandler 0070  
               ?_EUSART_SetFramingErrorHandler 0071                       __end_of_LIN_getFromTable 0270  
                                          wreg 0009                 __end_of_EUSART_get_last_status 061F  
                        __end_of_scheduleTable 0610                                   ?_EUSART_Read 0070  
                                         l2002 0566                                           l2012 04F4  
                                         l1133 043A                                           l2014 04FE  
                                         l2006 04E7                                           l2022 0602  
                                         l1142 04E5                                           l2030 032C  
                                         l2008 04F2                                           l1136 0446  
                                         l2040 0343                                           l2032 0333  
                                         l2050 035C                                           l2042 0345  
                                         l2034 033C                                           l2052 035E  
                                         l2044 0347                                           l2036 033F  
                                         l2028 032A                                           l1500 05A5  
                                         l2054 035F                                           l2046 034E  
                                         l2038 0341                                           l1430 04B7  
                                         l2070 0538                                           l1502 0610  
                                         l2400 0111                                           l2056 0360  
                                         l2048 0355                                           l1440 04C4  
                                         l1432 04BA                                           l2072 0539  
                                         l2064 052E                                           l2410 0130  
                                         l2058 0365                                           l2322 0587  
                                         l1442 04C6                                           l1434 04BC  
                                         l2074 053A                                           l2066 0533  
                                         l2332 031C                                           l2324 02D9  
                                         l2420 0147                                           l2412 0136  
                                         l2404 0125                                           l2340 0059  
                                         l1444 04C7                                           l1436 04BE  
                                         l1428 04B2                                           l2068 0536  
                                         l2326 02FD                                           l2422 014C  
                                         l2414 0139                                           l2406 0128  
                                         l2350 0070                                           l2342 005E  
                                         l2430 0156                                           l1446 04C9  
                                         l1438 04C2                                           l1800 03F7  
                                         l2328 030C                                           l2424 014F  
                                         l2416 013B                                           l2408 012D  
                                         l2360 008B                                           l2352 0073  
                                         l2344 0061                                           l2440 05AD  
                                         l1802 03F9                                           l2426 0152  
                                         l2418 013C                                           l2370 00A7  
                                         l2362 0093                                           l2354 007B  
                                         l2346 0069                                           l2338 0053  
                                         l1810 052A                                           l2442 05B0  
                                         l1820 048E                                           l1812 046D  
                                         l2540 0324                                           l2380 00C4  
                                         l2372 00AC                                           l2364 009B  
                                         l2356 0083                                           l2348 006D  
                                         l1740 05CF                                           l1804 0519  
                                         l2444 05B1                                           l2542 0264  
                                         l1830 045A                                           l1750 0423  
                                         l1742 05F3                                           l1814 0471  
                                         l2390 00DE                                           l2382 00CC  
                                         l2358 0087                                           l1806 0524  
                                         l2438 0542                                           l2446 05B2  
                                         l1840 040E                                           l1904 0181  
                                         l1760 03A9                                           l1832 0460  
                                         l1824 0449                                           l1752 0428  
                                         l1912 05F9                                           l1744 05F4  
                                         l1816 0476                                           l2392 00EB  
                                         l2384 00CF                                           l2376 00B6  
                                         l2368 009F                                           l1920 05D5  
                                         l1808 0527                                           l1496 05A1  
                                         l1850 041E                                           l1842 0412  
                                         l1834 03FC                                           l1914 061C  
                                         l1906 01FB                                           l1746 05FD  
                                         l1770 03C6                                           l1762 03AB  
                                         l1826 044B                                           l1754 042D  
                                         l1818 0479                                           l2538 015F  
                                         l2394 0104                                           l2386 00D2  
                                         l2378 00BF                                           l1922 05E7  
                                         l1498 05A4                                           l1852 0420  
                                         l1844 0418                                           l1836 03FC  
                                         l1908 0204                                           l1860 0210  
                                         l1764 03B5                                           l1772 03CA  
                                         l1828 0455                                           l1756 0431  
                                         l1780 04D0                                           l2396 0106  
                                         l2388 00D6                                           l1924 05E1  
                                         l1748 05C1                                           l1846 0419  
                                         l1838 0402                                           l1862 0212  
                                         l1790 03E0                                           l1774 03D2  
                                         l1766 03B9                                           l1758 03A2  
                                         l1782 04D5                                           l2398 0109  
                                         l1926 05ED                                           l1918 05DB  
                                         l1848 041B                                           l1880 0242  
                                         l1872 0231                                           l1856 0207  
                                         l1792 03E5                                           l1768 03C2  
                                         l1960 0276                                           l1784 04D9  
                                         l1890 025C                                           l1866 021D  
                                         l1874 0235                                           l1858 020C  
                                         l1794 03EC                                           l1786 03D5  
                                         l1970 028B                                           l1962 027A  
                                         l1778 04CD                                           l1884 024F  
                                         l1876 023C                                           l1868 022F  
                                         l1796 03F0                                           l1788 03D5  
                                         l1980 02D0                                           l1964 027C  
                                         l1972 028F                                           l1982 05B8  
                                         l1798 03F6                                           l1974 0295  
                                         l1958 0272                                           l1990 059C  
                                         l1976 02AF                                           l1968 0287  
                                         l1992 059D                                           l1994 0555  
                                         l1978 02C5                                           l1986 0595  
                                         l1996 055D                                           l1988 0598  
                                         l1998 0564                                           u1000 018F  
                                         u1001 018D                                           u1010 0196  
                                         u1002 0190                                           u1011 0194  
                                         u1110 01C4                                           u1030 019C  
                                         u1111 01C2                                           u1031 019A  
                                         u1200 01F3                                           u1120 01CB  
                                         u1112 01C5                                           u1104 01BF  
                                         u1040 01A3                                           u1032 019D  
                                         u1024 0197                                           u1201 01F1  
                                         u1121 01C9                                           u1041 01A1  
                                         u1210 01FA                                           u1202 01F4  
                                         u1130 01D2                                           u1122 01CC  
                                         u1050 01AA                                           u1042 01A4  
                                         u1211 01F8                                           u1131 01D0  
                                         u1051 01A8                                           u1230 0203  
                                         u1150 01D8                                           u1070 01B0  
                                         u1310 0286                                           u1231 0201  
                                         u1151 01D6                                           u1071 01AE  
                                         u1311 0285                                           u1224 01FB  
                                         u1160 01DF                                           u1152 01D9  
                                         u1144 01D3                                           u1080 01B7  
                                         u1072 01B1                                           u1064 01AB  
                                         u1320 0295                                           u1161 01DD  
                                         u1081 01B5                                           u1321 0294  
                                         u1330 05BF                                           u1170 01E6  
                                         u1162 01E0                                           u1090 01BE  
                                         u1082 01B8                                           u1331 05BD  
                                         u1171 01E4                                           u1091 01BC  
                                         u1340 05C0                                           u1244 0204  
                                         _LATA 010C                                           u1350 055D  
                                         u1190 01EC                                           _LATB 010D  
                                         u1351 055C                                           u1191 01EA  
                                         _LATC 010E                                           u1360 0564  
                                         u1192 01ED                                           u1184 01E7  
                                         u1361 0563                                           _LATE 0110  
                                         u1370 04F2                                           u1371 04F1  
                                         u1380 04FE                                           u1700 02F8  
                                         u1381 04FD                                           u1701 02F7  
                                         u1710 0307                                           u1711 0306  
                                         u1720 0316                                           u1800 00A7  
                                         u1721 0315                                           u1801 00A6  
                                         u1810 00B5                                           u1730 0059  
                                         u1811 00B4                                           u1731 0058  
                                         u1820 00C4                                           u1740 005E  
                                         u1821 00C3                                           u1741 005D  
                                         u1830 00DE                                           u1750 0069  
                                         u1831 00DD                                           u1751 0068  
                                         u1680 02E4                                           u1840 0104  
                                         u1760 007B                                           u1681 02E3  
                                         u1841 0103                                           u1761 007A  
                                         u1690 02EE                                           u1850 0111  
                                         u1770 0083                                           u1691 02ED  
                                         u1851 0110                                           u1771 0082  
                                         u1860 0124                                           u1780 0093  
                                         u1861 0123                                           u1845 0100  
                                         u1781 0092                                           u1870 014C  
                                         u1790 009B                                           u1871 014B  
                                         u1791 009A                                           _PLLR 04D6  
                                         _TMR0 0015                                           _WPUB 020D  
                                         _WPUE 0210                                 _LIN_sendPacket 0447  
                                         _main 05AD                                           fsr0h 0005  
                                         fsr1h 0007                                           indf0 0000  
                                         fsr0l 0004                                           indf1 0001  
                                         fsr1l 0006                                           btemp 007E  
                                         start 0038                                  processLIN@cmd 006C  
                              ?_LIN_breakCheck 0070                        __end_of_TMR0_Initialize 0542  
               ??_TMR0_DefaultInterruptHandler 0070                                  ?_EUSART_Write 0070  
                __end_of_OSCILLATOR_Initialize 05AD                              LIN_sendPacket@pid 0079  
                                        ?_main 0070                                LIN_init@command 0073  
                                        i1l215 060B                                          i1l209 0586  
                                        i1l433 0577                                          i1l460 0012  
                                        i1l365 04AF                                          i1l382 0621  
                                        i1l375 03A0                                          i1l439 0620  
                                        i1l463 0026                                          i1l368 04B1  
                                        i1l385 0617                                          i1l379 0517  
                                        i1l467 0036                                          i1l388 061B  
                                        i1l468 0036                                _TMR0_WriteTimer 05F8  
                                        _RCREG 0199                                          _RCSTA 019D  
                                        _TRISA 008C                                          _TRISB 008D  
                                        _TRISC 008E                                          _TRISE 0090  
                                        _TXREG 019A                               __end_of_LIN_init 052E  
                        __end_of_LIN_stopTimer 05F8                                          _TXSTA 019E  
                    ?_TMR0_SetInterruptHandler 0071                               __end_of_TMR0_ISR 0578  
                               _WDT_Initialize 0610                         __end_of_LIN_sendPacket 046C  
                                        pclath 000A                                 _LIN_startTimer 0594  
                                        status 0003                                          wtemp0 007E  
                             ?_LIN_getChecksum 0071                    LIN_queuePacket@tempSchedule 0068  
                              __initialization 003A                                   ?_LIN_handler 0070  
                                 __end_of_main 05B8                                 ??_EUSART_Write 0071  
                  ?_INTERRUPT_InterruptManager 0070                 ??_EUSART_SetRxInterruptHandler 0073  
                                       ??_main 007C                         __end_of_WDT_Initialize 0614  
                           LIN_sendPacket@data 007A      __end_of_EUSART_DefaultFramingErrorHandler 0622  
          ??_EUSART_DefaultFramingErrorHandler 0070             ?_EUSART_DefaultFramingErrorHandler 0070  
            _EUSART_DefaultFramingErrorHandler 0621                     _EUSART_OverrunErrorHandler 003C  
                       __end_of_LIN_startTimer 05A1                                ?_LIN_sendPacket 0079  
                                       _APFCON 011D                                         _ANSELA 018C  
                                       _ANSELB 018D                     __end_of_EUSART_is_rx_ready 05C1  
                                       _BORCON 0116                                         i1l2200 038D  
                                       i1l2024 0578                                         i1l2202 0396  
                                       i1l2026 0583                                         i1l2210 056C  
                                       i1l2060 0614                                         i1l2204 039D  
                                       i1l2212 0572                                         i1l2220 000A  
                                       i1l2062 0618                                         i1l2206 0568  
                                       i1l2230 002B                                         i1l2222 000E  
                                       i1l2208 0569                                         i1l2232 0030  
                                       i1l2224 0016                                         i1l2226 001B  
                                       i1l2218 0006                                         i1l2180 04A3  
                                       i1l2228 0020                                         i1l2190 0372  
                                       i1l2182 04A9                                         i1l2174 0490  
                                       i1l2192 0377                                         i1l2184 04AA  
                                       i1l2176 0497                                         i1l2194 037D  
                                       i1l2186 0368                                         i1l2178 049E  
                                       i1l2196 0382                                         i1l2188 036D  
                                       i1l2198 0387                                         i1l1930 0507  
                                       i1l1932 050B                                         i1l1940 0608  
                                       i1l1934 0511                                         i1l1936 0512  
                                       i1l1928 0500                                         i1l1938 0607  
                                       u125_20 0511                                         u125_21 0510  
                                       u160_20 0572                                         u160_21 0571  
                                       u161_20 000A                                         u161_21 0009  
                                       u162_20 000E                                         u162_21 000D  
                                       u155_20 0497                                         u139_20 0583  
                                       u163_20 0016                                         u155_21 0496  
                                       u139_21 0582                                         u163_21 0015  
                                       u156_20 04A9                                         u164_20 001B  
                                       u156_21 04A8                                         u164_21 001A  
                                       u157_20 0372                                         u165_20 0020  
                                       u157_21 0371                                         u165_21 001F  
                                       u158_20 0382                                         u166_20 002B  
                                       u158_21 0381                                         u166_21 002A  
                                       u159_20 0396                                         u167_20 0030  
                                       u159_21 0395                                         u167_21 002F  
                                       _OSCCON 0099                                         _SPBRGH 019C  
                                       _SPBRGL 019B                                         _WDTCON 0097  
                              _LIN_processData 0046                                _LIN_queuePacket 0270  
                      __end_of_TMR0_WriteTimer 05FD                            _EUSART_Transmit_ISR 0490  
                                       _memcpy 0422                               ?_TMR0_Initialize 0070  
                                       _memset 04CC                                ?_WDT_Initialize 0070  
                             _LIN_rxInProgress 0054       TMR0_SetInterruptHandler@InterruptHandler 0071  
                              ?_LIN_startTimer 0070                           ?_EUSART_Transmit_ISR 0070  
                            _SYSTEM_Initialize 0542                        __end_of__initialization 004F  
                           ?_SYSTEM_Initialize 0070                                  ?_LIN_checkPID 0070  
         __end_of_EUSART_SetTxInterruptHandler 05DB                   _EUSART_SetTxInterruptHandler 05D5  
                                    ?_LIN_init 0073                                 __pcstackCOMMON 0070  
                                ?_LIN_enableRx 0070                               ??_LIN_calcParity 0071  
                              LIN_sendPacket@i 0063                                   __pidataBANK0 061F  
                          ??_SYSTEM_Initialize 0078                                      ?_TMR0_ISR 0070  
                       LIN_handler@rxDataIndex 004F                                 _OPTION_REGbits 0095  
                         _eusartRxStatusBuffer 0020                              ?_LIN_getFromTable 0071  
                       LIN_handler@LIN_rxState 0050                ??_EUSART_SetOverrunErrorHandler 0073  
                           ??_LIN_getFromTable 0072                      __end_of_SYSTEM_Initialize 0555  
                        ??_EUSART_Transmit_ISR 0070                                     __pbssBANK0 0020  
                                   __pbssBANK1 00A0                           __end_of_EUSART_Write 03FC  
                             ??_LIN_breakCheck 0073                                 ??_LIN_checkPID 0078  
                  __end_of_LIN_setTimerHandler 05C9                        __end_of_LIN_queuePacket 02D9  
                               ??_LIN_enableRx 0071                                     __pmaintext 05AD  
                             _LIN_timerHandler 0578                                     ??_LIN_init 0077  
                          LIN_getChecksum@data 0072                  ?_EUSART_SetTxInterruptHandler 0071  
             _EUSART_TxDefaultInterruptHandler 0042               __end_of_TMR0_SetInterruptHandler 05D5  
                                   ??_TMR0_ISR 0071                                     __pintentry 0004  
                             ?_TMR0_WriteTimer 0070                                        ?_memcpy 0071  
                                      _BAUDCON 019F                                        ?_memset 0071  
                 ??_EUSART_DefaultErrorHandler 0071                          LIN_getChecksum@length 0075  
                             _LIN_timerRunning 0052                                  _eusartRxCount 004A  
                                      _OSCTUNE 0098                       ??_EUSART_SetErrorHandler 0073  
                      LIN_getChecksum@checksum 0077                   __end_of_LIN_Slave_Initialize 0594  
                                _SW_STATE_Data 00A0                                        __ptext1 0542  
                                      __ptext2 0610                                        __ptext3 052E  
                                      __ptext4 04B2                                        __ptext5 05A1  
                                      __ptext6 0587                                        __ptext7 0518  
                                      __ptext8 05C1                                        __ptext9 05CF  
                        _OSCILLATOR_Initialize 05A1                               ??_LIN_sendPacket 007B  
                     ??_PIN_MANAGER_Initialize 0071                                        clrloop0 05CA  
                    LIN_getFromTable@rxCommand 0076                           end_of_initialization 004F  
        __end_of_EUSART_SetOverrunErrorHandler 05E7                  _EUSART_SetOverrunErrorHandler 05E1  
                                      memcpy@d 0076                                        memcpy@n 0072  
                                      memcpy@s 0077                                        memset@c 0071  
                                      memset@n 0073                                        memset@p 0076  
                            _EUSART_Initialize 032A                               ?_LIN_queuePacket 0070  
                           ?_EUSART_Initialize 0070                                      _RCSTAbits 019D  
                            ??i1_LIN_stopTimer 0070                             _EUSART_is_rx_ready 05B8  
                                _LIN_getPacket 046C                                  _LIN_disableRx 0602  
                     ??_EUSART_get_last_status 0071                            ??_EUSART_Initialize 0073  
                             ??_WDT_Initialize 0071                 ??_EUSART_SetTxInterruptHandler 0073  
                            LIN_getPacket@data 0079                       _TMR0_SetInterruptHandler 05CF  
                          ?_EUSART_is_rx_ready 0070                                     _processLIN 02D9  
                         __end_of_LIN_checkPID 0500                            LIN_init@tableLength 0077  
                             ??_LIN_startTimer 0072                           __end_of_LIN_enableRx 0602  
                                _scheduleTable 060C                      __end_of_EUSART_Initialize 0368  
                         ??_EUSART_is_rx_ready 0071                                      _TXSTAbits 019E  
                                _LIN_rxCommand 0044                                 ?_LIN_getPacket 0070  
                               ?_LIN_disableRx 0070             __end_of_EUSART_DefaultErrorHandler 061C  
                   _EUSART_DefaultErrorHandler 0618                                   _EUSART_Write 03D4  
                               __end_of_memcpy 0447                         ?_OSCILLATOR_Initialize 0070  
                               __end_of_memset 04E6                            start_initialization 003A  
                                _LIN_stopTimer 05F3                       __end_of_LIN_timerHandler 0587  
                         _LIN_Slave_Initialize 0587                                  ??_EUSART_Read 0071  
 EUSART_SetRxInterruptHandler@interruptHandler 0071   EUSART_SetTxInterruptHandler@interruptHandler 0071  
                        LIN_startTimer@timeout 0072                              LIN_calcParity@CMD 0072  
               ?_EUSART_SetOverrunErrorHandler 0071                              LIN_calcParity@PID 0073  
                   _EUSART_FramingErrorHandler 003E                         _EUSART_SetErrorHandler 05ED  
                                  __pdataBANK0 006D                                       ??_memcpy 0074  
                                     ??_memset 0075                           processLIN@tempRxData 0064  
                                   memset@dest 0077                                    ?_processLIN 0070  
                          LIN_init@processData 0075                    __end_of_EUSART_Transmit_ISR 04B2  
                               ?_LIN_stopTimer 0070                                    __pbssCOMMON 007C  
                                    ___latbits 0002                                  __pcstackBANK0 0062  
                                __pcstackBANK1 00A8                              ??_LIN_getChecksum 0073  
                        ?_LIN_Slave_Initialize 0070                     __end_of_EUSART_Receive_ISR 03A1  
             _EUSART_RxDefaultInterruptHandler 0040                            __end_of_EUSART_Read 0422  
                        _TMR0_InterruptHandler 0038                   __end_of_EUSART_RxDataHandler 0518  
                              ??_LIN_getPacket 0079                         _PIN_MANAGER_Initialize 04B2  
                                ??_LIN_handler 00A8                               LIN_getChecksum@i 0076  
                              ??_LIN_disableRx 0071                           EUSART_Read@readValue 0072  
                           LIN_getChecksum@pid 0071                           LIN_sendPacket@length 0062  
                                 _eusartRxHead 007C                                   _eusartTxHead 004E  
                                 _eusartRxTail 004B                                   _eusartTxTail 004D  
                 ??_INTERRUPT_InterruptManager 0071                        _eusartTxBufferRemaining 004C  
                              LIN_checkPID@pid 0078                                i1_LIN_stopTimer 0607  
                               _eusartRxBuffer 0028                         _EUSART_get_last_status 061C  
                            ??_TMR0_Initialize 0073                                 _eusartTxBuffer 0030  
       EUSART_SetErrorHandler@interruptHandler 0071                                       _LATBbits 010D  
                                    clear_ram0 05C9                                       _PIE1bits 0091  
                            _eusartRxLastError 0049                                   _LIN_checkPID 04E6  
                   ??_TMR0_SetInterruptHandler 0073                                       _PIR1bits 0011  
              ??_EUSART_SetFramingErrorHandler 0073                                       _LIN_init 0518  
                                 _LIN_enableRx 05FD                                       _TMR0_ISR 0568  
    __end_of_EUSART_DefaultOverrunErrorHandler 0618            ??_EUSART_DefaultOverrunErrorHandler 0070  
           ?_EUSART_DefaultOverrunErrorHandler 0070              _EUSART_DefaultOverrunErrorHandler 0614  
                             LIN_getPacket@cmd 007A                            __end_of_LIN_handler 0180  
                              ??_LIN_stopTimer 0071                         ??_LIN_Slave_Initialize 0078  
                                  _EUSART_Read 03FC                               _LIN_getFromTable 0206  
                                    memcpy@tmp 0075                        ??_OSCILLATOR_Initialize 0071  
                          _EUSART_ErrorHandler 003A                    ?_EUSART_DefaultErrorHandler 0070  
                      __end_ofi1_LIN_stopTimer 060C                           _EUSART_RxDataHandler 0500  
                                     __ptext10 032A                                       __ptext11 05D5  
                                     __ptext20 05F3                                       __ptext12 05DB  
                                     __ptext21 0594                                       __ptext13 05E1  
                                     __ptext30 04E6                                       __ptext22 05F8  
                                     __ptext14 05E7                                       __ptext31 0206  
                                     __ptext23 0270                                       __ptext15 05ED  
                                     __ptext40 0620                                       __ptext32 0180  
                                     __ptext24 0422                                       __ptext16 0053  
                                     __ptext41 0607                                       __ptext33 0555  
                                     __ptext25 0447                                       __ptext17 02D9  
                                     __ptext42 0490                                       __ptext34 061C  
                                     __ptext26 03A1                                       __ptext18 046C  
                                     __ptext43 0368                                       __ptext35 03FC  
                                     __ptext27 03D4                                       __ptext19 04CC  
                                     __ptext44 0614                                       __ptext36 05B8  
                                     __ptext28 05FD                                       __ptext45 0621  
                                     __ptext29 0602                                       __ptext46 0618  
                                     __ptext38 0568                                       __ptext47 0500  
                                     __ptext39 0578                              ?_LIN_timerHandler 0070  
                      TMR0_WriteTimer@timerVal 0071                             ??_LIN_timerHandler 0070  
                            ??_TMR0_WriteTimer 0071                         LIN_getFromTable@length 0075  
         __end_of_TMR0_DefaultInterruptHandler 0621                   _TMR0_DefaultInterruptHandler 0620  
                      ?_EUSART_SetErrorHandler 0071                            _LIN_rxCommandLength 0053  
EUSART_SetOverrunErrorHandler@interruptHandler 0071                                    _LIN_handler 0053  
                                     int$flags 007E                                _LIN_getChecksum 03A1  
           __end_of_INTERRUPT_InterruptManager 0038                     _INTERRUPT_InterruptManager 0004  
        __end_of_EUSART_SetFramingErrorHandler 05ED                  _EUSART_SetFramingErrorHandler 05E7  
                                 ??_processLIN 0062                                    _LIN_timeout 006D  
                               _LIN_calcParity 0180                                     _INTCONbits 000B  
                        ?_EUSART_RxDataHandler 0070                                       memcpy@d1 0078  
                                     memcpy@s1 0071                            _LIN_setTimerHandler 05C1  
                                     intlevel1 0000                                  _CountCallBack 0051  
                      ?_PIN_MANAGER_Initialize 0070                 __end_of_EUSART_SetErrorHandler 05F3  
                        LIN_getFromTable@param 0071                             __end_of_processLIN 032A  
         __end_of_EUSART_SetRxInterruptHandler 05E1                   _EUSART_SetRxInterruptHandler 05DB  
                ?_TMR0_DefaultInterruptHandler 0070                                     _LIN_packet 0055  
                           _EUSART_Receive_ISR 0368                           ?_LIN_setTimerHandler 0070  
EUSART_SetFramingErrorHandler@interruptHandler 0071                                 _LIN_breakCheck 0555  
                       __end_of_LIN_calcParity 0206                                  __pstringtext1 060C  
                           LIN_queuePacket@cmd 0066                                     _OPTION_REG 0095  
                          ?_EUSART_Receive_ISR 0070                                _TMR0_Initialize 052E  
                            ??_LIN_queuePacket 0064                               ?i1_LIN_stopTimer 0070  
                      ?_EUSART_get_last_status 0070                             EUSART_Write@txData 0072  
               __end_of_PIN_MANAGER_Initialize 04CC                            LIN_getFromTable@cmd 0074  
                             LIN_queuePacket@i 0067                           ??_EUSART_Receive_ISR 0071  
                      __end_of_LIN_getChecksum 03D4  
